ARM GAS  C:\Users\Lars\AppData\Local\Temp\ccQhX5hy.s 			page 1


   1              		.syntax unified
   2              		.cpu cortex-m0
   3              		.fpu softvfp
   4              		.eabi_attribute 20, 1
   5              		.eabi_attribute 21, 1
   6              		.eabi_attribute 23, 3
   7              		.eabi_attribute 24, 1
   8              		.eabi_attribute 25, 1
   9              		.eabi_attribute 26, 1
  10              		.eabi_attribute 30, 6
  11              		.eabi_attribute 34, 0
  12              		.eabi_attribute 18, 4
  13              		.thumb
  14              		.syntax unified
  15              		.file	"AMux_High.c"
  16              		.text
  17              	.Ltext0:
  18              		.cfi_sections	.debug_frame
  19              		.data
  20              		.type	AMux_High_lastChannel, %object
  21              		.size	AMux_High_lastChannel, 1
  22              	AMux_High_lastChannel:
  23 0000 FF       		.byte	-1
  24              		.section	.text.AMux_High_Start,"ax",%progbits
  25              		.align	2
  26              		.global	AMux_High_Start
  27              		.code	16
  28              		.thumb_func
  29              		.type	AMux_High_Start, %function
  30              	AMux_High_Start:
  31              	.LFB0:
  32              		.file 1 "Generated_Source\\PSoC4\\AMux_High.c"
   1:Generated_Source\PSoC4/AMux_High.c **** /*******************************************************************************
   2:Generated_Source\PSoC4/AMux_High.c **** * File Name: AMux_High.c
   3:Generated_Source\PSoC4/AMux_High.c **** * Version 1.80
   4:Generated_Source\PSoC4/AMux_High.c **** *
   5:Generated_Source\PSoC4/AMux_High.c **** *  Description:
   6:Generated_Source\PSoC4/AMux_High.c **** *    This file contains all functions required for the analog multiplexer
   7:Generated_Source\PSoC4/AMux_High.c **** *    AMux User Module.
   8:Generated_Source\PSoC4/AMux_High.c **** *
   9:Generated_Source\PSoC4/AMux_High.c **** *   Note:
  10:Generated_Source\PSoC4/AMux_High.c **** *
  11:Generated_Source\PSoC4/AMux_High.c **** *******************************************************************************
  12:Generated_Source\PSoC4/AMux_High.c **** * Copyright 2008-2010, Cypress Semiconductor Corporation.  All rights reserved.
  13:Generated_Source\PSoC4/AMux_High.c **** * You may use this file only in accordance with the license, terms, conditions, 
  14:Generated_Source\PSoC4/AMux_High.c **** * disclaimers, and limitations in the end user license agreement accompanying 
  15:Generated_Source\PSoC4/AMux_High.c **** * the software package with which this file was provided.
  16:Generated_Source\PSoC4/AMux_High.c **** ********************************************************************************/
  17:Generated_Source\PSoC4/AMux_High.c **** 
  18:Generated_Source\PSoC4/AMux_High.c **** #include "AMux_High.h"
  19:Generated_Source\PSoC4/AMux_High.c **** 
  20:Generated_Source\PSoC4/AMux_High.c **** static uint8 AMux_High_lastChannel = AMux_High_NULL_CHANNEL;
  21:Generated_Source\PSoC4/AMux_High.c **** 
  22:Generated_Source\PSoC4/AMux_High.c **** 
  23:Generated_Source\PSoC4/AMux_High.c **** /*******************************************************************************
  24:Generated_Source\PSoC4/AMux_High.c **** * Function Name: AMux_High_Start
  25:Generated_Source\PSoC4/AMux_High.c **** ********************************************************************************
ARM GAS  C:\Users\Lars\AppData\Local\Temp\ccQhX5hy.s 			page 2


  26:Generated_Source\PSoC4/AMux_High.c **** * Summary:
  27:Generated_Source\PSoC4/AMux_High.c **** *  Disconnect all channels.
  28:Generated_Source\PSoC4/AMux_High.c **** *
  29:Generated_Source\PSoC4/AMux_High.c **** * Parameters:
  30:Generated_Source\PSoC4/AMux_High.c **** *  void
  31:Generated_Source\PSoC4/AMux_High.c **** *
  32:Generated_Source\PSoC4/AMux_High.c **** * Return:
  33:Generated_Source\PSoC4/AMux_High.c **** *  void
  34:Generated_Source\PSoC4/AMux_High.c **** *
  35:Generated_Source\PSoC4/AMux_High.c **** *******************************************************************************/
  36:Generated_Source\PSoC4/AMux_High.c **** void AMux_High_Start(void) 
  37:Generated_Source\PSoC4/AMux_High.c **** {
  33              		.loc 1 37 0
  34              		.cfi_startproc
  35              		@ args = 0, pretend = 0, frame = 8
  36              		@ frame_needed = 1, uses_anonymous_args = 0
  37 0000 80B5     		push	{r7, lr}
  38              		.cfi_def_cfa_offset 8
  39              		.cfi_offset 7, -8
  40              		.cfi_offset 14, -4
  41 0002 82B0     		sub	sp, sp, #8
  42              		.cfi_def_cfa_offset 16
  43 0004 00AF     		add	r7, sp, #0
  44              		.cfi_def_cfa_register 7
  38:Generated_Source\PSoC4/AMux_High.c ****     uint8 chan;
  39:Generated_Source\PSoC4/AMux_High.c **** 
  40:Generated_Source\PSoC4/AMux_High.c ****     for(chan = 0u; chan < AMux_High_CHANNELS ; chan++)
  45              		.loc 1 40 0
  46 0006 FB1D     		adds	r3, r7, #7
  47 0008 0022     		movs	r2, #0
  48 000a 1A70     		strb	r2, [r3]
  49 000c 09E0     		b	.L2
  50              	.L3:
  41:Generated_Source\PSoC4/AMux_High.c ****     {
  42:Generated_Source\PSoC4/AMux_High.c **** #if (AMux_High_MUXTYPE == AMux_High_MUX_SINGLE)
  43:Generated_Source\PSoC4/AMux_High.c ****         AMux_High_Unset(chan);
  51              		.loc 1 43 0 discriminator 3
  52 000e FB1D     		adds	r3, r7, #7
  53 0010 1B78     		ldrb	r3, [r3]
  54 0012 1800     		movs	r0, r3
  55 0014 FFF7FEFF 		bl	AMux_High_Unset
  40:Generated_Source\PSoC4/AMux_High.c ****     {
  56              		.loc 1 40 0 discriminator 3
  57 0018 FB1D     		adds	r3, r7, #7
  58 001a 1A78     		ldrb	r2, [r3]
  59 001c FB1D     		adds	r3, r7, #7
  60 001e 0132     		adds	r2, r2, #1
  61 0020 1A70     		strb	r2, [r3]
  62              	.L2:
  40:Generated_Source\PSoC4/AMux_High.c ****     {
  63              		.loc 1 40 0 is_stmt 0 discriminator 1
  64 0022 FB1D     		adds	r3, r7, #7
  65 0024 1B78     		ldrb	r3, [r3]
  66 0026 012B     		cmp	r3, #1
  67 0028 F1D9     		bls	.L3
  44:Generated_Source\PSoC4/AMux_High.c **** #else
  45:Generated_Source\PSoC4/AMux_High.c ****         AMux_High_CYAMUXSIDE_A_Unset(chan);
ARM GAS  C:\Users\Lars\AppData\Local\Temp\ccQhX5hy.s 			page 3


  46:Generated_Source\PSoC4/AMux_High.c ****         AMux_High_CYAMUXSIDE_B_Unset(chan);
  47:Generated_Source\PSoC4/AMux_High.c **** #endif
  48:Generated_Source\PSoC4/AMux_High.c ****     }
  49:Generated_Source\PSoC4/AMux_High.c **** 
  50:Generated_Source\PSoC4/AMux_High.c ****     AMux_High_lastChannel = AMux_High_NULL_CHANNEL;
  68              		.loc 1 50 0 is_stmt 1
  69 002a 034B     		ldr	r3, .L4
  70 002c FF22     		movs	r2, #255
  71 002e 1A70     		strb	r2, [r3]
  51:Generated_Source\PSoC4/AMux_High.c **** }
  72              		.loc 1 51 0
  73 0030 C046     		nop
  74 0032 BD46     		mov	sp, r7
  75 0034 02B0     		add	sp, sp, #8
  76              		@ sp needed
  77 0036 80BD     		pop	{r7, pc}
  78              	.L5:
  79              		.align	2
  80              	.L4:
  81 0038 00000000 		.word	AMux_High_lastChannel
  82              		.cfi_endproc
  83              	.LFE0:
  84              		.size	AMux_High_Start, .-AMux_High_Start
  85              		.section	.text.AMux_High_Select,"ax",%progbits
  86              		.align	2
  87              		.global	AMux_High_Select
  88              		.code	16
  89              		.thumb_func
  90              		.type	AMux_High_Select, %function
  91              	AMux_High_Select:
  92              	.LFB1:
  52:Generated_Source\PSoC4/AMux_High.c **** 
  53:Generated_Source\PSoC4/AMux_High.c **** 
  54:Generated_Source\PSoC4/AMux_High.c **** #if (!AMux_High_ATMOSTONE)
  55:Generated_Source\PSoC4/AMux_High.c **** /*******************************************************************************
  56:Generated_Source\PSoC4/AMux_High.c **** * Function Name: AMux_High_Select
  57:Generated_Source\PSoC4/AMux_High.c **** ********************************************************************************
  58:Generated_Source\PSoC4/AMux_High.c **** * Summary:
  59:Generated_Source\PSoC4/AMux_High.c **** *  This functions first disconnects all channels then connects the given
  60:Generated_Source\PSoC4/AMux_High.c **** *  channel.
  61:Generated_Source\PSoC4/AMux_High.c **** *
  62:Generated_Source\PSoC4/AMux_High.c **** * Parameters:
  63:Generated_Source\PSoC4/AMux_High.c **** *  channel:  The channel to connect to the common terminal.
  64:Generated_Source\PSoC4/AMux_High.c **** *
  65:Generated_Source\PSoC4/AMux_High.c **** * Return:
  66:Generated_Source\PSoC4/AMux_High.c **** *  void
  67:Generated_Source\PSoC4/AMux_High.c **** *
  68:Generated_Source\PSoC4/AMux_High.c **** *******************************************************************************/
  69:Generated_Source\PSoC4/AMux_High.c **** void AMux_High_Select(uint8 channel) 
  70:Generated_Source\PSoC4/AMux_High.c **** {
  93              		.loc 1 70 0
  94              		.cfi_startproc
  95              		@ args = 0, pretend = 0, frame = 8
  96              		@ frame_needed = 1, uses_anonymous_args = 0
  97 0000 80B5     		push	{r7, lr}
  98              		.cfi_def_cfa_offset 8
  99              		.cfi_offset 7, -8
ARM GAS  C:\Users\Lars\AppData\Local\Temp\ccQhX5hy.s 			page 4


 100              		.cfi_offset 14, -4
 101 0002 82B0     		sub	sp, sp, #8
 102              		.cfi_def_cfa_offset 16
 103 0004 00AF     		add	r7, sp, #0
 104              		.cfi_def_cfa_register 7
 105 0006 0200     		movs	r2, r0
 106 0008 FB1D     		adds	r3, r7, #7
 107 000a 1A70     		strb	r2, [r3]
  71:Generated_Source\PSoC4/AMux_High.c ****     AMux_High_DisconnectAll();        /* Disconnect all previous connections */
 108              		.loc 1 71 0
 109 000c FFF7FEFF 		bl	AMux_High_Start
  72:Generated_Source\PSoC4/AMux_High.c ****     AMux_High_Connect(channel);       /* Make the given selection */
 110              		.loc 1 72 0
 111 0010 FB1D     		adds	r3, r7, #7
 112 0012 1B78     		ldrb	r3, [r3]
 113 0014 1800     		movs	r0, r3
 114 0016 FFF7FEFF 		bl	AMux_High_Set
  73:Generated_Source\PSoC4/AMux_High.c ****     AMux_High_lastChannel = channel;  /* Update last channel */
 115              		.loc 1 73 0
 116 001a 044B     		ldr	r3, .L7
 117 001c FA1D     		adds	r2, r7, #7
 118 001e 1278     		ldrb	r2, [r2]
 119 0020 1A70     		strb	r2, [r3]
  74:Generated_Source\PSoC4/AMux_High.c **** }
 120              		.loc 1 74 0
 121 0022 C046     		nop
 122 0024 BD46     		mov	sp, r7
 123 0026 02B0     		add	sp, sp, #8
 124              		@ sp needed
 125 0028 80BD     		pop	{r7, pc}
 126              	.L8:
 127 002a C046     		.align	2
 128              	.L7:
 129 002c 00000000 		.word	AMux_High_lastChannel
 130              		.cfi_endproc
 131              	.LFE1:
 132              		.size	AMux_High_Select, .-AMux_High_Select
 133              		.section	.text.AMux_High_FastSelect,"ax",%progbits
 134              		.align	2
 135              		.global	AMux_High_FastSelect
 136              		.code	16
 137              		.thumb_func
 138              		.type	AMux_High_FastSelect, %function
 139              	AMux_High_FastSelect:
 140              	.LFB2:
  75:Generated_Source\PSoC4/AMux_High.c **** #endif
  76:Generated_Source\PSoC4/AMux_High.c **** 
  77:Generated_Source\PSoC4/AMux_High.c **** 
  78:Generated_Source\PSoC4/AMux_High.c **** /*******************************************************************************
  79:Generated_Source\PSoC4/AMux_High.c **** * Function Name: AMux_High_FastSelect
  80:Generated_Source\PSoC4/AMux_High.c **** ********************************************************************************
  81:Generated_Source\PSoC4/AMux_High.c **** * Summary:
  82:Generated_Source\PSoC4/AMux_High.c **** *  This function first disconnects the last connection made with FastSelect or
  83:Generated_Source\PSoC4/AMux_High.c **** *  Select, then connects the given channel. The FastSelect function is similar
  84:Generated_Source\PSoC4/AMux_High.c **** *  to the Select function, except it is faster since it only disconnects the
  85:Generated_Source\PSoC4/AMux_High.c **** *  last channel selected rather than all channels.
  86:Generated_Source\PSoC4/AMux_High.c **** *
ARM GAS  C:\Users\Lars\AppData\Local\Temp\ccQhX5hy.s 			page 5


  87:Generated_Source\PSoC4/AMux_High.c **** * Parameters:
  88:Generated_Source\PSoC4/AMux_High.c **** *  channel:  The channel to connect to the common terminal.
  89:Generated_Source\PSoC4/AMux_High.c **** *
  90:Generated_Source\PSoC4/AMux_High.c **** * Return:
  91:Generated_Source\PSoC4/AMux_High.c **** *  void
  92:Generated_Source\PSoC4/AMux_High.c **** *
  93:Generated_Source\PSoC4/AMux_High.c **** *******************************************************************************/
  94:Generated_Source\PSoC4/AMux_High.c **** void AMux_High_FastSelect(uint8 channel) 
  95:Generated_Source\PSoC4/AMux_High.c **** {
 141              		.loc 1 95 0
 142              		.cfi_startproc
 143              		@ args = 0, pretend = 0, frame = 8
 144              		@ frame_needed = 1, uses_anonymous_args = 0
 145 0000 80B5     		push	{r7, lr}
 146              		.cfi_def_cfa_offset 8
 147              		.cfi_offset 7, -8
 148              		.cfi_offset 14, -4
 149 0002 82B0     		sub	sp, sp, #8
 150              		.cfi_def_cfa_offset 16
 151 0004 00AF     		add	r7, sp, #0
 152              		.cfi_def_cfa_register 7
 153 0006 0200     		movs	r2, r0
 154 0008 FB1D     		adds	r3, r7, #7
 155 000a 1A70     		strb	r2, [r3]
  96:Generated_Source\PSoC4/AMux_High.c ****     /* Disconnect the last valid channel */
  97:Generated_Source\PSoC4/AMux_High.c ****     if( AMux_High_lastChannel != AMux_High_NULL_CHANNEL)
 156              		.loc 1 97 0
 157 000c 0A4B     		ldr	r3, .L11
 158 000e 1B78     		ldrb	r3, [r3]
 159 0010 FF2B     		cmp	r3, #255
 160 0012 04D0     		beq	.L10
  98:Generated_Source\PSoC4/AMux_High.c ****     {
  99:Generated_Source\PSoC4/AMux_High.c ****         AMux_High_Disconnect(AMux_High_lastChannel);
 161              		.loc 1 99 0
 162 0014 084B     		ldr	r3, .L11
 163 0016 1B78     		ldrb	r3, [r3]
 164 0018 1800     		movs	r0, r3
 165 001a FFF7FEFF 		bl	AMux_High_Unset
 166              	.L10:
 100:Generated_Source\PSoC4/AMux_High.c ****     }
 101:Generated_Source\PSoC4/AMux_High.c **** 
 102:Generated_Source\PSoC4/AMux_High.c ****     /* Make the new channel connection */
 103:Generated_Source\PSoC4/AMux_High.c **** #if (AMux_High_MUXTYPE == AMux_High_MUX_SINGLE)
 104:Generated_Source\PSoC4/AMux_High.c ****     AMux_High_Set(channel);
 167              		.loc 1 104 0
 168 001e FB1D     		adds	r3, r7, #7
 169 0020 1B78     		ldrb	r3, [r3]
 170 0022 1800     		movs	r0, r3
 171 0024 FFF7FEFF 		bl	AMux_High_Set
 105:Generated_Source\PSoC4/AMux_High.c **** #else
 106:Generated_Source\PSoC4/AMux_High.c ****     AMux_High_CYAMUXSIDE_A_Set(channel);
 107:Generated_Source\PSoC4/AMux_High.c ****     AMux_High_CYAMUXSIDE_B_Set(channel);
 108:Generated_Source\PSoC4/AMux_High.c **** #endif
 109:Generated_Source\PSoC4/AMux_High.c **** 
 110:Generated_Source\PSoC4/AMux_High.c **** 
 111:Generated_Source\PSoC4/AMux_High.c ****     AMux_High_lastChannel = channel;   /* Update last channel */
 172              		.loc 1 111 0
ARM GAS  C:\Users\Lars\AppData\Local\Temp\ccQhX5hy.s 			page 6


 173 0028 034B     		ldr	r3, .L11
 174 002a FA1D     		adds	r2, r7, #7
 175 002c 1278     		ldrb	r2, [r2]
 176 002e 1A70     		strb	r2, [r3]
 112:Generated_Source\PSoC4/AMux_High.c **** }
 177              		.loc 1 112 0
 178 0030 C046     		nop
 179 0032 BD46     		mov	sp, r7
 180 0034 02B0     		add	sp, sp, #8
 181              		@ sp needed
 182 0036 80BD     		pop	{r7, pc}
 183              	.L12:
 184              		.align	2
 185              	.L11:
 186 0038 00000000 		.word	AMux_High_lastChannel
 187              		.cfi_endproc
 188              	.LFE2:
 189              		.size	AMux_High_FastSelect, .-AMux_High_FastSelect
 190              		.text
 191              	.Letext0:
 192              		.file 2 "Generated_Source\\PSoC4\\cytypes.h"