ARM GAS  C:\Users\Lars\AppData\Local\Temp\ccGZkTSS.s 			page 1


   1              		.syntax unified
   2              		.cpu cortex-m0
   3              		.fpu softvfp
   4              		.eabi_attribute 20, 1
   5              		.eabi_attribute 21, 1
   6              		.eabi_attribute 23, 3
   7              		.eabi_attribute 24, 1
   8              		.eabi_attribute 25, 1
   9              		.eabi_attribute 26, 1
  10              		.eabi_attribute 30, 6
  11              		.eabi_attribute 34, 0
  12              		.eabi_attribute 18, 4
  13              		.thumb
  14              		.syntax unified
  15              		.file	"currentSink.c"
  16              		.text
  17              	.Ltext0:
  18              		.cfi_sections	.debug_frame
  19              		.comm	currentSinkToggleRequest,1,1
  20              		.comm	currentSourceState,1,1
  21              		.section	.text.initializeCurrentSink,"ax",%progbits
  22              		.align	2
  23              		.global	initializeCurrentSink
  24              		.code	16
  25              		.thumb_func
  26              		.type	initializeCurrentSink, %function
  27              	initializeCurrentSink:
  28              	.LFB32:
  29              		.file 1 "currentSink.c"
   1:currentSink.c **** /*******************************************************************************
   2:currentSink.c **** * File Name: currenSink.c
   3:currentSink.c **** * Version 1.0
   4:currentSink.c **** *
   5:currentSink.c **** * Description:
   6:currentSink.c **** *
   7:currentSink.c **** * Note: none
   8:currentSink.c **** *
   9:currentSink.c **** ********************************************************************************/
  10:currentSink.c **** #include "currentSink.h"
  11:currentSink.c **** 
  12:currentSink.c **** extern volatile int8 SPI_Status_Reg;
  13:currentSink.c **** volatile uint8 currentSinkToggleRequest;
  14:currentSink.c **** uint8 currentSourceState;
  15:currentSink.c **** 
  16:currentSink.c **** /********************************************************************************
  17:currentSink.c **** *   Function Definitions
  18:currentSink.c **** ********************************************************************************/
  19:currentSink.c **** 
  20:currentSink.c **** 
  21:currentSink.c **** /********************************************************************************** 
  22:currentSink.c **** * Function Name: initializeCurrentSink
  23:currentSink.c **** ***********************************************************************************
  24:currentSink.c **** *
  25:currentSink.c **** * Summary:
  26:currentSink.c **** *  Initialize the current sink IDAC and external interrupts
  27:currentSink.c **** 
  28:currentSink.c **** * Parameters: none 
ARM GAS  C:\Users\Lars\AppData\Local\Temp\ccGZkTSS.s 			page 2


  29:currentSink.c **** *
  30:currentSink.c **** * Return: none
  31:currentSink.c **** * 
  32:currentSink.c **** *************************************************************************************/
  33:currentSink.c **** void initializeCurrentSink(void)
  34:currentSink.c **** {
  30              		.loc 1 34 0
  31              		.cfi_startproc
  32              		@ args = 0, pretend = 0, frame = 0
  33              		@ frame_needed = 1, uses_anonymous_args = 0
  34 0000 80B5     		push	{r7, lr}
  35              		.cfi_def_cfa_offset 8
  36              		.cfi_offset 7, -8
  37              		.cfi_offset 14, -4
  38 0002 00AF     		add	r7, sp, #0
  39              		.cfi_def_cfa_register 7
  35:currentSink.c ****     IDAC_Start();
  40              		.loc 1 35 0
  41 0004 FFF7FEFF 		bl	IDAC_Start
  36:currentSink.c ****    // Pin_Toggle_Sink_SetInterruptMode(Pin_Toggle_Sink_0_INTR,Pin_Toggle_Sink_INTR_RISING);
  37:currentSink.c ****     ISR_TurnOn_Sink_Start(); 
  42              		.loc 1 37 0
  43 0008 FFF7FEFF 		bl	ISR_TurnOn_Sink_Start
  38:currentSink.c ****    //     Pin_Toggle_Sink_SetInterruptMode(Pin_Toggle_Sink_0_INTR,Pin_Toggle_Sink_INTR_RISING);
  39:currentSink.c ****     ISR_TurnOff_Sink_Start();     
  44              		.loc 1 39 0
  45 000c FFF7FEFF 		bl	ISR_TurnOff_Sink_Start
  40:currentSink.c **** }
  46              		.loc 1 40 0
  47 0010 C046     		nop
  48 0012 BD46     		mov	sp, r7
  49              		@ sp needed
  50 0014 80BD     		pop	{r7, pc}
  51              		.cfi_endproc
  52              	.LFE32:
  53              		.size	initializeCurrentSink, .-initializeCurrentSink
  54 0016 C046     		.section	.text.setHighCurrent,"ax",%progbits
  55              		.align	2
  56              		.global	setHighCurrent
  57              		.code	16
  58              		.thumb_func
  59              		.type	setHighCurrent, %function
  60              	setHighCurrent:
  61              	.LFB33:
  41:currentSink.c **** 
  42:currentSink.c **** /********************************************************************************** 
  43:currentSink.c **** * Function Name: setHighCurrent
  44:currentSink.c **** ***********************************************************************************
  45:currentSink.c **** *
  46:currentSink.c **** * Summary: Set the IDAC value to drive a high current (IDAC value = 255)
  47:currentSink.c **** * 
  48:currentSink.c **** 
  49:currentSink.c **** * Parameters: none 
  50:currentSink.c **** *
  51:currentSink.c **** * Return: none
  52:currentSink.c **** * 
  53:currentSink.c **** *************************************************************************************/
ARM GAS  C:\Users\Lars\AppData\Local\Temp\ccGZkTSS.s 			page 3


  54:currentSink.c **** void setHighCurrent(void)
  55:currentSink.c **** { 
  62              		.loc 1 55 0
  63              		.cfi_startproc
  64              		@ args = 0, pretend = 0, frame = 0
  65              		@ frame_needed = 1, uses_anonymous_args = 0
  66 0000 80B5     		push	{r7, lr}
  67              		.cfi_def_cfa_offset 8
  68              		.cfi_offset 7, -8
  69              		.cfi_offset 14, -4
  70 0002 00AF     		add	r7, sp, #0
  71              		.cfi_def_cfa_register 7
  56:currentSink.c ****     if(GPIO_EN_Read() == GPIO_WRITE_LOW && GPIO_VREF_Read() == GPIO_WRITE_HIGH) //Check if the Mult
  72              		.loc 1 56 0
  73 0004 FFF7FEFF 		bl	GPIO_EN_Read
  74 0008 031E     		subs	r3, r0, #0
  75 000a 07D1     		bne	.L4
  76              		.loc 1 56 0 is_stmt 0 discriminator 1
  77 000c FFF7FEFF 		bl	GPIO_VREF_Read
  78 0010 0300     		movs	r3, r0
  79 0012 012B     		cmp	r3, #1
  80 0014 02D1     		bne	.L4
  57:currentSink.c ****     {
  58:currentSink.c ****     IDAC_SetValue(IDAC_HIGH_CURRENT);   //Set the current to 100mA 
  81              		.loc 1 58 0 is_stmt 1
  82 0016 FF20     		movs	r0, #255
  83 0018 FFF7FEFF 		bl	IDAC_SetValue
  84              	.L4:
  59:currentSink.c ****     }   
  60:currentSink.c **** }
  85              		.loc 1 60 0
  86 001c C046     		nop
  87 001e BD46     		mov	sp, r7
  88              		@ sp needed
  89 0020 80BD     		pop	{r7, pc}
  90              		.cfi_endproc
  91              	.LFE33:
  92              		.size	setHighCurrent, .-setHighCurrent
  93 0022 C046     		.section	.text.setLowCurrent,"ax",%progbits
  94              		.align	2
  95              		.global	setLowCurrent
  96              		.code	16
  97              		.thumb_func
  98              		.type	setLowCurrent, %function
  99              	setLowCurrent:
 100              	.LFB34:
  61:currentSink.c **** 
  62:currentSink.c **** /********************************************************************************** 
  63:currentSink.c **** * Function Name: setHighCurrent
  64:currentSink.c **** ***********************************************************************************
  65:currentSink.c **** *
  66:currentSink.c **** * Summary: Set the IDAC value to drive a low current (IDAC value = 0)
  67:currentSink.c **** * 
  68:currentSink.c **** 
  69:currentSink.c **** * Parameters: none 
  70:currentSink.c **** *
  71:currentSink.c **** * Return: none
ARM GAS  C:\Users\Lars\AppData\Local\Temp\ccGZkTSS.s 			page 4


  72:currentSink.c **** * 
  73:currentSink.c **** *************************************************************************************/
  74:currentSink.c **** void setLowCurrent(void)
  75:currentSink.c **** { 
 101              		.loc 1 75 0
 102              		.cfi_startproc
 103              		@ args = 0, pretend = 0, frame = 0
 104              		@ frame_needed = 1, uses_anonymous_args = 0
 105 0000 80B5     		push	{r7, lr}
 106              		.cfi_def_cfa_offset 8
 107              		.cfi_offset 7, -8
 108              		.cfi_offset 14, -4
 109 0002 00AF     		add	r7, sp, #0
 110              		.cfi_def_cfa_register 7
  76:currentSink.c ****     if(GPIO_EN_Read() == GPIO_WRITE_LOW && GPIO_VREF_Read() == GPIO_WRITE_HIGH) //Check if the Mult
 111              		.loc 1 76 0
 112 0004 FFF7FEFF 		bl	GPIO_EN_Read
 113 0008 031E     		subs	r3, r0, #0
 114 000a 07D1     		bne	.L7
 115              		.loc 1 76 0 is_stmt 0 discriminator 1
 116 000c FFF7FEFF 		bl	GPIO_VREF_Read
 117 0010 0300     		movs	r3, r0
 118 0012 012B     		cmp	r3, #1
 119 0014 02D1     		bne	.L7
  77:currentSink.c ****     {   
  78:currentSink.c ****     IDAC_SetValue(IDAC_LOW_CURRENT);   //Set the current to 50mA   
 120              		.loc 1 78 0 is_stmt 1
 121 0016 0020     		movs	r0, #0
 122 0018 FFF7FEFF 		bl	IDAC_SetValue
 123              	.L7:
  79:currentSink.c ****     } 
  80:currentSink.c **** }
 124              		.loc 1 80 0
 125 001c C046     		nop
 126 001e BD46     		mov	sp, r7
 127              		@ sp needed
 128 0020 80BD     		pop	{r7, pc}
 129              		.cfi_endproc
 130              	.LFE34:
 131              		.size	setLowCurrent, .-setLowCurrent
 132 0022 C046     		.section	.text.turnOnSink,"ax",%progbits
 133              		.align	2
 134              		.global	turnOnSink
 135              		.code	16
 136              		.thumb_func
 137              		.type	turnOnSink, %function
 138              	turnOnSink:
 139              	.LFB35:
  81:currentSink.c **** 
  82:currentSink.c **** /********************************************************************************** 
  83:currentSink.c **** * Function Name: turnOnSink
  84:currentSink.c **** ***********************************************************************************
  85:currentSink.c **** *
  86:currentSink.c **** * Summary: Turn on the current by setting the corresponding GPIO and IDAC value
  87:currentSink.c **** * 
  88:currentSink.c **** 
  89:currentSink.c **** * Parameters: none 
ARM GAS  C:\Users\Lars\AppData\Local\Temp\ccGZkTSS.s 			page 5


  90:currentSink.c **** *
  91:currentSink.c **** * Return: none
  92:currentSink.c **** * 
  93:currentSink.c **** *************************************************************************************/
  94:currentSink.c **** void turnOnSink(void)
  95:currentSink.c **** {   
 140              		.loc 1 95 0
 141              		.cfi_startproc
 142              		@ args = 0, pretend = 0, frame = 0
 143              		@ frame_needed = 1, uses_anonymous_args = 0
 144 0000 80B5     		push	{r7, lr}
 145              		.cfi_def_cfa_offset 8
 146              		.cfi_offset 7, -8
 147              		.cfi_offset 14, -4
 148 0002 00AF     		add	r7, sp, #0
 149              		.cfi_def_cfa_register 7
  96:currentSink.c ****     GPIO_EN_Write(GPIO_WRITE_LOW);
 150              		.loc 1 96 0
 151 0004 0020     		movs	r0, #0
 152 0006 FFF7FEFF 		bl	GPIO_EN_Write
  97:currentSink.c ****     CyDelayUs(30); //Wait 30us for switching time
 153              		.loc 1 97 0
 154 000a 1E20     		movs	r0, #30
 155 000c FFF7FEFF 		bl	CyDelayUs
  98:currentSink.c ****     GPIO_VREF_Write(GPIO_WRITE_HIGH);  
 156              		.loc 1 98 0
 157 0010 0120     		movs	r0, #1
 158 0012 FFF7FEFF 		bl	GPIO_VREF_Write
  99:currentSink.c ****     IDAC_SetValue(IDAC_HIGH_CURRENT);
 159              		.loc 1 99 0
 160 0016 FF20     		movs	r0, #255
 161 0018 FFF7FEFF 		bl	IDAC_SetValue
 100:currentSink.c ****     __SPI_SET_STATUS_BIT(STATUS_CURRENT_SOURCE_ON);
 162              		.loc 1 100 0
 163 001c 064B     		ldr	r3, .L9
 164 001e 1B78     		ldrb	r3, [r3]
 165 0020 5BB2     		sxtb	r3, r3
 166 0022 0222     		movs	r2, #2
 167 0024 1343     		orrs	r3, r2
 168 0026 5AB2     		sxtb	r2, r3
 169 0028 034B     		ldr	r3, .L9
 170 002a 1A70     		strb	r2, [r3]
 101:currentSink.c ****     currentSourceState = 1;
 171              		.loc 1 101 0
 172 002c 034B     		ldr	r3, .L9+4
 173 002e 0122     		movs	r2, #1
 174 0030 1A70     		strb	r2, [r3]
 102:currentSink.c **** }
 175              		.loc 1 102 0
 176 0032 C046     		nop
 177 0034 BD46     		mov	sp, r7
 178              		@ sp needed
 179 0036 80BD     		pop	{r7, pc}
 180              	.L10:
 181              		.align	2
 182              	.L9:
 183 0038 00000000 		.word	SPI_Status_Reg
ARM GAS  C:\Users\Lars\AppData\Local\Temp\ccGZkTSS.s 			page 6


 184 003c 00000000 		.word	currentSourceState
 185              		.cfi_endproc
 186              	.LFE35:
 187              		.size	turnOnSink, .-turnOnSink
 188              		.section	.text.turnOffSink,"ax",%progbits
 189              		.align	2
 190              		.global	turnOffSink
 191              		.code	16
 192              		.thumb_func
 193              		.type	turnOffSink, %function
 194              	turnOffSink:
 195              	.LFB36:
 103:currentSink.c **** 
 104:currentSink.c **** /********************************************************************************** 
 105:currentSink.c **** * Function Name: turnOffSink
 106:currentSink.c **** ***********************************************************************************
 107:currentSink.c **** *
 108:currentSink.c **** * Summary: Turn pff the current by resetting the corresponding GPIO and IDAC value
 109:currentSink.c **** * 
 110:currentSink.c **** 
 111:currentSink.c **** * Parameters: none 
 112:currentSink.c **** *
 113:currentSink.c **** * Return: none
 114:currentSink.c **** * 
 115:currentSink.c **** *************************************************************************************/
 116:currentSink.c **** void turnOffSink(void)
 117:currentSink.c **** { 
 196              		.loc 1 117 0
 197              		.cfi_startproc
 198              		@ args = 0, pretend = 0, frame = 0
 199              		@ frame_needed = 1, uses_anonymous_args = 0
 200 0000 80B5     		push	{r7, lr}
 201              		.cfi_def_cfa_offset 8
 202              		.cfi_offset 7, -8
 203              		.cfi_offset 14, -4
 204 0002 00AF     		add	r7, sp, #0
 205              		.cfi_def_cfa_register 7
 118:currentSink.c ****    GPIO_VREF_Write(GPIO_WRITE_LOW); 
 206              		.loc 1 118 0
 207 0004 0020     		movs	r0, #0
 208 0006 FFF7FEFF 		bl	GPIO_VREF_Write
 119:currentSink.c ****    IDAC_SetValue(IDAC_LOW_CURRENT);   
 209              		.loc 1 119 0
 210 000a 0020     		movs	r0, #0
 211 000c FFF7FEFF 		bl	IDAC_SetValue
 120:currentSink.c ****    CyDelayUs(30); //Wait 30us for switching time
 212              		.loc 1 120 0
 213 0010 1E20     		movs	r0, #30
 214 0012 FFF7FEFF 		bl	CyDelayUs
 121:currentSink.c ****    GPIO_EN_Write(GPIO_WRITE_HIGH); 
 215              		.loc 1 121 0
 216 0016 0120     		movs	r0, #1
 217 0018 FFF7FEFF 		bl	GPIO_EN_Write
 122:currentSink.c ****    __SPI_CLEAR_STATUS_BIT(STATUS_CURRENT_SOURCE_ON);
 218              		.loc 1 122 0
 219 001c 064B     		ldr	r3, .L12
 220 001e 1B78     		ldrb	r3, [r3]
ARM GAS  C:\Users\Lars\AppData\Local\Temp\ccGZkTSS.s 			page 7


 221 0020 5BB2     		sxtb	r3, r3
 222 0022 0222     		movs	r2, #2
 223 0024 9343     		bics	r3, r2
 224 0026 5AB2     		sxtb	r2, r3
 225 0028 034B     		ldr	r3, .L12
 226 002a 1A70     		strb	r2, [r3]
 123:currentSink.c ****    currentSourceState = 0;
 227              		.loc 1 123 0
 228 002c 034B     		ldr	r3, .L12+4
 229 002e 0022     		movs	r2, #0
 230 0030 1A70     		strb	r2, [r3]
 124:currentSink.c **** }
 231              		.loc 1 124 0
 232 0032 C046     		nop
 233 0034 BD46     		mov	sp, r7
 234              		@ sp needed
 235 0036 80BD     		pop	{r7, pc}
 236              	.L13:
 237              		.align	2
 238              	.L12:
 239 0038 00000000 		.word	SPI_Status_Reg
 240 003c 00000000 		.word	currentSourceState
 241              		.cfi_endproc
 242              	.LFE36:
 243              		.size	turnOffSink, .-turnOffSink
 244              		.section	.text.setMultiplexerChan,"ax",%progbits
 245              		.align	2
 246              		.global	setMultiplexerChan
 247              		.code	16
 248              		.thumb_func
 249              		.type	setMultiplexerChan, %function
 250              	setMultiplexerChan:
 251              	.LFB37:
 125:currentSink.c **** 
 126:currentSink.c **** /********************************************************************************** 
 127:currentSink.c **** * Function Name: setMultiplexerChan
 128:currentSink.c **** ***********************************************************************************
 129:currentSink.c **** *
 130:currentSink.c **** * Summary: Set the GPIOs to set the multiplexer to drive a specific transistor for TSEP measurement
 131:currentSink.c **** * 
 132:currentSink.c **** * Parameters: chan channel that will be set active
 133:currentSink.c **** *           CHANNEL_1: SIC-Transistor 1 
 134:currentSink.c **** *           CHANNEL_2: SIC-Transistor 2
 135:currentSink.c **** *           CHANNEL_3: SIC-Transistor 3
 136:currentSink.c **** *           CHANNEL_4: SIC-Transistor 4
 137:currentSink.c **** *
 138:currentSink.c **** * Return: none
 139:currentSink.c **** * 
 140:currentSink.c **** *************************************************************************************/
 141:currentSink.c **** void setMultiplexerChan(uint8 chan)
 142:currentSink.c **** {
 252              		.loc 1 142 0
 253              		.cfi_startproc
 254              		@ args = 0, pretend = 0, frame = 8
 255              		@ frame_needed = 1, uses_anonymous_args = 0
 256 0000 80B5     		push	{r7, lr}
 257              		.cfi_def_cfa_offset 8
ARM GAS  C:\Users\Lars\AppData\Local\Temp\ccGZkTSS.s 			page 8


 258              		.cfi_offset 7, -8
 259              		.cfi_offset 14, -4
 260 0002 82B0     		sub	sp, sp, #8
 261              		.cfi_def_cfa_offset 16
 262 0004 00AF     		add	r7, sp, #0
 263              		.cfi_def_cfa_register 7
 264 0006 0200     		movs	r2, r0
 265 0008 FB1D     		adds	r3, r7, #7
 266 000a 1A70     		strb	r2, [r3]
 143:currentSink.c ****     
 144:currentSink.c ****     switch(chan)
 267              		.loc 1 144 0
 268 000c FB1D     		adds	r3, r7, #7
 269 000e 1B78     		ldrb	r3, [r3]
 270 0010 012B     		cmp	r3, #1
 271 0012 0FD0     		beq	.L16
 272 0014 02DC     		bgt	.L17
 273 0016 002B     		cmp	r3, #0
 274 0018 05D0     		beq	.L18
 145:currentSink.c ****     {
 146:currentSink.c ****     case MULTIPLEXER_CHAN1: 
 147:currentSink.c ****         GPIO_S0_Write(GPIO_WRITE_LOW);
 148:currentSink.c ****         GPIO_S1_Write(GPIO_WRITE_LOW);
 149:currentSink.c ****         break;
 150:currentSink.c ****     case MULTIPLEXER_CHAN2: 
 151:currentSink.c ****         GPIO_S0_Write(GPIO_WRITE_HIGH);
 152:currentSink.c ****         GPIO_S1_Write(GPIO_WRITE_LOW);
 153:currentSink.c ****         break;
 154:currentSink.c ****     case MULTIPLEXER_CHAN3: 
 155:currentSink.c ****         GPIO_S0_Write(GPIO_WRITE_LOW);
 156:currentSink.c ****         GPIO_S1_Write(GPIO_WRITE_HIGH);
 157:currentSink.c ****         break;
 158:currentSink.c ****     case MULTIPLEXER_CHAN4: 
 159:currentSink.c ****         GPIO_S0_Write(GPIO_WRITE_HIGH);
 160:currentSink.c ****         GPIO_S1_Write(GPIO_WRITE_HIGH);
 161:currentSink.c ****         break;
 162:currentSink.c ****     default: 
 163:currentSink.c ****         //No valid Channel
 164:currentSink.c ****         break;
 275              		.loc 1 164 0
 276 001a 20E0     		b	.L21
 277              	.L17:
 144:currentSink.c ****     {
 278              		.loc 1 144 0
 279 001c 022B     		cmp	r3, #2
 280 001e 10D0     		beq	.L19
 281 0020 032B     		cmp	r3, #3
 282 0022 15D0     		beq	.L20
 283              		.loc 1 164 0
 284 0024 1BE0     		b	.L21
 285              	.L18:
 147:currentSink.c ****         GPIO_S1_Write(GPIO_WRITE_LOW);
 286              		.loc 1 147 0
 287 0026 0020     		movs	r0, #0
 288 0028 FFF7FEFF 		bl	GPIO_S0_Write
 148:currentSink.c ****         break;
 289              		.loc 1 148 0
ARM GAS  C:\Users\Lars\AppData\Local\Temp\ccGZkTSS.s 			page 9


 290 002c 0020     		movs	r0, #0
 291 002e FFF7FEFF 		bl	GPIO_S1_Write
 149:currentSink.c ****     case MULTIPLEXER_CHAN2: 
 292              		.loc 1 149 0
 293 0032 14E0     		b	.L21
 294              	.L16:
 151:currentSink.c ****         GPIO_S1_Write(GPIO_WRITE_LOW);
 295              		.loc 1 151 0
 296 0034 0120     		movs	r0, #1
 297 0036 FFF7FEFF 		bl	GPIO_S0_Write
 152:currentSink.c ****         break;
 298              		.loc 1 152 0
 299 003a 0020     		movs	r0, #0
 300 003c FFF7FEFF 		bl	GPIO_S1_Write
 153:currentSink.c ****     case MULTIPLEXER_CHAN3: 
 301              		.loc 1 153 0
 302 0040 0DE0     		b	.L21
 303              	.L19:
 155:currentSink.c ****         GPIO_S1_Write(GPIO_WRITE_HIGH);
 304              		.loc 1 155 0
 305 0042 0020     		movs	r0, #0
 306 0044 FFF7FEFF 		bl	GPIO_S0_Write
 156:currentSink.c ****         break;
 307              		.loc 1 156 0
 308 0048 0120     		movs	r0, #1
 309 004a FFF7FEFF 		bl	GPIO_S1_Write
 157:currentSink.c ****     case MULTIPLEXER_CHAN4: 
 310              		.loc 1 157 0
 311 004e 06E0     		b	.L21
 312              	.L20:
 159:currentSink.c ****         GPIO_S1_Write(GPIO_WRITE_HIGH);
 313              		.loc 1 159 0
 314 0050 0120     		movs	r0, #1
 315 0052 FFF7FEFF 		bl	GPIO_S0_Write
 160:currentSink.c ****         break;
 316              		.loc 1 160 0
 317 0056 0120     		movs	r0, #1
 318 0058 FFF7FEFF 		bl	GPIO_S1_Write
 161:currentSink.c ****     default: 
 319              		.loc 1 161 0
 320 005c C046     		nop
 321              	.L21:
 165:currentSink.c ****     }
 166:currentSink.c **** }
 322              		.loc 1 166 0
 323 005e C046     		nop
 324 0060 BD46     		mov	sp, r7
 325 0062 02B0     		add	sp, sp, #8
 326              		@ sp needed
 327 0064 80BD     		pop	{r7, pc}
 328              		.cfi_endproc
 329              	.LFE37:
 330              		.size	setMultiplexerChan, .-setMultiplexerChan
 331 0066 C046     		.section	.text.getCurrentSourceState,"ax",%progbits
 332              		.align	2
 333              		.global	getCurrentSourceState
 334              		.code	16
ARM GAS  C:\Users\Lars\AppData\Local\Temp\ccGZkTSS.s 			page 10


 335              		.thumb_func
 336              		.type	getCurrentSourceState, %function
 337              	getCurrentSourceState:
 338              	.LFB38:
 167:currentSink.c **** 
 168:currentSink.c **** /********************************************************************************** 
 169:currentSink.c **** * Function Name: getCurrentSourceState
 170:currentSink.c **** ***********************************************************************************
 171:currentSink.c **** *
 172:currentSink.c **** * Summary: Returns if the current source is turned on or of
 173:currentSink.c **** * 
 174:currentSink.c **** * Parameters: None
 175:currentSink.c **** *
 176:currentSink.c **** * Return: The state of the current source
 177:currentSink.c **** *           CURRENT_SINK_STATE_ON      current sink on
 178:currentSink.c **** *           CURRENT_SINK_STATE_OFF     current sink off
 179:currentSink.c **** * 
 180:currentSink.c **** *************************************************************************************/
 181:currentSink.c **** uint8 getCurrentSourceState(void)
 182:currentSink.c **** {
 339              		.loc 1 182 0
 340              		.cfi_startproc
 341              		@ args = 0, pretend = 0, frame = 0
 342              		@ frame_needed = 1, uses_anonymous_args = 0
 343 0000 80B5     		push	{r7, lr}
 344              		.cfi_def_cfa_offset 8
 345              		.cfi_offset 7, -8
 346              		.cfi_offset 14, -4
 347 0002 00AF     		add	r7, sp, #0
 348              		.cfi_def_cfa_register 7
 183:currentSink.c ****     return currentSourceState;
 349              		.loc 1 183 0
 350 0004 024B     		ldr	r3, .L24
 351 0006 1B78     		ldrb	r3, [r3]
 184:currentSink.c **** }
 352              		.loc 1 184 0
 353 0008 1800     		movs	r0, r3
 354 000a BD46     		mov	sp, r7
 355              		@ sp needed
 356 000c 80BD     		pop	{r7, pc}
 357              	.L25:
 358 000e C046     		.align	2
 359              	.L24:
 360 0010 00000000 		.word	currentSourceState
 361              		.cfi_endproc
 362              	.LFE38:
 363              		.size	getCurrentSourceState, .-getCurrentSourceState
 364              		.section	.text.getISRState,"ax",%progbits
 365              		.align	2
 366              		.global	getISRState
 367              		.code	16
 368              		.thumb_func
 369              		.type	getISRState, %function
 370              	getISRState:
 371              	.LFB39:
 185:currentSink.c **** 
 186:currentSink.c **** /********************************************************************************
ARM GAS  C:\Users\Lars\AppData\Local\Temp\ccGZkTSS.s 			page 11


 187:currentSink.c **** * Handling of the Interrupts to turn on and off the current sink for measurement 
 188:currentSink.c **** * of the forward voltage using an external adc
 189:currentSink.c **** ********************************************************************************/
 190:currentSink.c **** 
 191:currentSink.c **** 
 192:currentSink.c **** /********************************************************************************** 
 193:currentSink.c **** * Function Name: getISRState
 194:currentSink.c **** ***********************************************************************************
 195:currentSink.c **** *
 196:currentSink.c **** * Summary: Returns if a turn on or turn off request is currently active
 197:currentSink.c **** * 
 198:currentSink.c **** * Parameters: None
 199:currentSink.c **** *
 200:currentSink.c **** * Return: The ISR request type 
 201:currentSink.c **** *           0U                              no request
 202:currentSink.c **** *           CURRENT_SINK_TURNON_PENDING     turn on request
 203:currentSink.c **** *           CURRENT_SINK_TURNOFF_PENDING    turn off request
 204:currentSink.c **** 
 205:currentSink.c **** *************************************************************************************/
 206:currentSink.c **** uint8 getISRState(void)
 207:currentSink.c **** {
 372              		.loc 1 207 0
 373              		.cfi_startproc
 374              		@ args = 0, pretend = 0, frame = 0
 375              		@ frame_needed = 1, uses_anonymous_args = 0
 376 0000 80B5     		push	{r7, lr}
 377              		.cfi_def_cfa_offset 8
 378              		.cfi_offset 7, -8
 379              		.cfi_offset 14, -4
 380 0002 00AF     		add	r7, sp, #0
 381              		.cfi_def_cfa_register 7
 208:currentSink.c ****     return currentSinkToggleRequest;
 382              		.loc 1 208 0
 383 0004 024B     		ldr	r3, .L28
 384 0006 1B78     		ldrb	r3, [r3]
 385 0008 DBB2     		uxtb	r3, r3
 209:currentSink.c **** }
 386              		.loc 1 209 0
 387 000a 1800     		movs	r0, r3
 388 000c BD46     		mov	sp, r7
 389              		@ sp needed
 390 000e 80BD     		pop	{r7, pc}
 391              	.L29:
 392              		.align	2
 393              	.L28:
 394 0010 00000000 		.word	currentSinkToggleRequest
 395              		.cfi_endproc
 396              	.LFE39:
 397              		.size	getISRState, .-getISRState
 398              		.section	.text.resetISRState,"ax",%progbits
 399              		.align	2
 400              		.global	resetISRState
 401              		.code	16
 402              		.thumb_func
 403              		.type	resetISRState, %function
 404              	resetISRState:
 405              	.LFB40:
ARM GAS  C:\Users\Lars\AppData\Local\Temp\ccGZkTSS.s 			page 12


 210:currentSink.c **** 
 211:currentSink.c **** /********************************************************************************** 
 212:currentSink.c **** * Function Name: resetISRState
 213:currentSink.c **** ***********************************************************************************
 214:currentSink.c **** *
 215:currentSink.c **** * Summary: Resets the request state after processing of interrupt
 216:currentSink.c **** * 
 217:currentSink.c **** * Parameters: None
 218:currentSink.c **** *
 219:currentSink.c **** * Return: None
 220:currentSink.c **** *
 221:currentSink.c **** *************************************************************************************/
 222:currentSink.c **** void resetISRState(void)
 223:currentSink.c **** {
 406              		.loc 1 223 0
 407              		.cfi_startproc
 408              		@ args = 0, pretend = 0, frame = 0
 409              		@ frame_needed = 1, uses_anonymous_args = 0
 410 0000 80B5     		push	{r7, lr}
 411              		.cfi_def_cfa_offset 8
 412              		.cfi_offset 7, -8
 413              		.cfi_offset 14, -4
 414 0002 00AF     		add	r7, sp, #0
 415              		.cfi_def_cfa_register 7
 224:currentSink.c ****     currentSinkToggleRequest = 0;
 416              		.loc 1 224 0
 417 0004 024B     		ldr	r3, .L31
 418 0006 0022     		movs	r2, #0
 419 0008 1A70     		strb	r2, [r3]
 225:currentSink.c **** }
 420              		.loc 1 225 0
 421 000a C046     		nop
 422 000c BD46     		mov	sp, r7
 423              		@ sp needed
 424 000e 80BD     		pop	{r7, pc}
 425              	.L32:
 426              		.align	2
 427              	.L31:
 428 0010 00000000 		.word	currentSinkToggleRequest
 429              		.cfi_endproc
 430              	.LFE40:
 431              		.size	resetISRState, .-resetISRState
 432              		.section	.text.ISR_TurnOn_Sink_Interrupt_InterruptCallback,"ax",%progbits
 433              		.align	2
 434              		.global	ISR_TurnOn_Sink_Interrupt_InterruptCallback
 435              		.code	16
 436              		.thumb_func
 437              		.type	ISR_TurnOn_Sink_Interrupt_InterruptCallback, %function
 438              	ISR_TurnOn_Sink_Interrupt_InterruptCallback:
 439              	.LFB41:
 226:currentSink.c **** 
 227:currentSink.c **** /********************************************************************************** 
 228:currentSink.c **** * Function Name: ISR_TurnOff_Sink_Interrupt_InterruptCallback
 229:currentSink.c **** ***********************************************************************************
 230:currentSink.c **** *
 231:currentSink.c **** * Summary: Callback that sets the request to pending turned on
 232:currentSink.c **** * 
ARM GAS  C:\Users\Lars\AppData\Local\Temp\ccGZkTSS.s 			page 13


 233:currentSink.c **** * Parameters: None
 234:currentSink.c **** *
 235:currentSink.c **** * Return: None
 236:currentSink.c **** *
 237:currentSink.c **** *************************************************************************************/
 238:currentSink.c **** void ISR_TurnOn_Sink_Interrupt_InterruptCallback(void)
 239:currentSink.c **** {
 440              		.loc 1 239 0
 441              		.cfi_startproc
 442              		@ args = 0, pretend = 0, frame = 0
 443              		@ frame_needed = 1, uses_anonymous_args = 0
 444 0000 80B5     		push	{r7, lr}
 445              		.cfi_def_cfa_offset 8
 446              		.cfi_offset 7, -8
 447              		.cfi_offset 14, -4
 448 0002 00AF     		add	r7, sp, #0
 449              		.cfi_def_cfa_register 7
 240:currentSink.c ****     currentSinkToggleRequest = CURRENT_SINK_TURNON_PENDING;
 450              		.loc 1 240 0
 451 0004 034B     		ldr	r3, .L34
 452 0006 0122     		movs	r2, #1
 453 0008 1A70     		strb	r2, [r3]
 241:currentSink.c ****     ISR_TurnOn_Sink_ClearPending();
 454              		.loc 1 241 0
 455 000a FFF7FEFF 		bl	ISR_TurnOn_Sink_ClearPending
 242:currentSink.c **** }
 456              		.loc 1 242 0
 457 000e C046     		nop
 458 0010 BD46     		mov	sp, r7
 459              		@ sp needed
 460 0012 80BD     		pop	{r7, pc}
 461              	.L35:
 462              		.align	2
 463              	.L34:
 464 0014 00000000 		.word	currentSinkToggleRequest
 465              		.cfi_endproc
 466              	.LFE41:
 467              		.size	ISR_TurnOn_Sink_Interrupt_InterruptCallback, .-ISR_TurnOn_Sink_Interrupt_InterruptCallback
 468              		.section	.text.ISR_TurnOff_Sink_Interrupt_InterruptCallback,"ax",%progbits
 469              		.align	2
 470              		.global	ISR_TurnOff_Sink_Interrupt_InterruptCallback
 471              		.code	16
 472              		.thumb_func
 473              		.type	ISR_TurnOff_Sink_Interrupt_InterruptCallback, %function
 474              	ISR_TurnOff_Sink_Interrupt_InterruptCallback:
 475              	.LFB42:
 243:currentSink.c **** 
 244:currentSink.c **** /********************************************************************************** 
 245:currentSink.c **** * Function Name: ISR_TurnOff_Sink_Interrupt_InterruptCallback
 246:currentSink.c **** ***********************************************************************************
 247:currentSink.c **** *
 248:currentSink.c **** * Summary: Callback that sets the request to pending turned off
 249:currentSink.c **** * 
 250:currentSink.c **** * Parameters: None
 251:currentSink.c **** *
 252:currentSink.c **** * Return: None
 253:currentSink.c **** *
ARM GAS  C:\Users\Lars\AppData\Local\Temp\ccGZkTSS.s 			page 14


 254:currentSink.c **** *************************************************************************************/
 255:currentSink.c **** void ISR_TurnOff_Sink_Interrupt_InterruptCallback(void)
 256:currentSink.c **** {
 476              		.loc 1 256 0
 477              		.cfi_startproc
 478              		@ args = 0, pretend = 0, frame = 0
 479              		@ frame_needed = 1, uses_anonymous_args = 0
 480 0000 80B5     		push	{r7, lr}
 481              		.cfi_def_cfa_offset 8
 482              		.cfi_offset 7, -8
 483              		.cfi_offset 14, -4
 484 0002 00AF     		add	r7, sp, #0
 485              		.cfi_def_cfa_register 7
 257:currentSink.c ****     currentSinkToggleRequest = CURRENT_SINK_TURNOFF_PENDING;
 486              		.loc 1 257 0
 487 0004 034B     		ldr	r3, .L37
 488 0006 0222     		movs	r2, #2
 489 0008 1A70     		strb	r2, [r3]
 258:currentSink.c ****     ISR_TurnOff_Sink_ClearPending();    
 490              		.loc 1 258 0
 491 000a FFF7FEFF 		bl	ISR_TurnOff_Sink_ClearPending
 259:currentSink.c **** }
 492              		.loc 1 259 0
 493 000e C046     		nop
 494 0010 BD46     		mov	sp, r7
 495              		@ sp needed
 496 0012 80BD     		pop	{r7, pc}
 497              	.L38:
 498              		.align	2
 499              	.L37:
 500 0014 00000000 		.word	currentSinkToggleRequest
 501              		.cfi_endproc
 502              	.LFE42:
 503              		.size	ISR_TurnOff_Sink_Interrupt_InterruptCallback, .-ISR_TurnOff_Sink_Interrupt_InterruptCallback
 504              		.text
 505              	.Letext0:
 506              		.file 2 "Generated_Source\\PSoC4/cytypes.h"