ARM GAS  C:\Users\Lars\AppData\Local\Temp\ccdMQiRg.s 			page 1


   1              		.syntax unified
   2              		.cpu cortex-m0
   3              		.fpu softvfp
   4              		.eabi_attribute 20, 1
   5              		.eabi_attribute 21, 1
   6              		.eabi_attribute 23, 3
   7              		.eabi_attribute 24, 1
   8              		.eabi_attribute 25, 1
   9              		.eabi_attribute 26, 1
  10              		.eabi_attribute 30, 6
  11              		.eabi_attribute 34, 0
  12              		.eabi_attribute 18, 4
  13              		.thumb
  14              		.syntax unified
  15              		.file	"cyfitter_cfg.c"
  16              		.text
  17              	.Ltext0:
  18              		.cfi_sections	.debug_frame
  19              		.section	.text.CYMEMZERO,"ax",%progbits
  20              		.align	2
  21              		.code	16
  22              		.thumb_func
  23              		.type	CYMEMZERO, %function
  24              	CYMEMZERO:
  25              	.LFB32:
  26              		.file 1 "Generated_Source\\PSoC4\\cyfitter_cfg.c"
   1:Generated_Source\PSoC4/cyfitter_cfg.c **** 
   2:Generated_Source\PSoC4/cyfitter_cfg.c **** /*******************************************************************************
   3:Generated_Source\PSoC4/cyfitter_cfg.c **** * File Name: cyfitter_cfg.c
   4:Generated_Source\PSoC4/cyfitter_cfg.c **** * 
   5:Generated_Source\PSoC4/cyfitter_cfg.c **** * PSoC Creator  4.2
   6:Generated_Source\PSoC4/cyfitter_cfg.c **** *
   7:Generated_Source\PSoC4/cyfitter_cfg.c **** * Description:
   8:Generated_Source\PSoC4/cyfitter_cfg.c **** * This file contains device initialization code.
   9:Generated_Source\PSoC4/cyfitter_cfg.c **** * Except for the user defined sections in CyClockStartupError(), this file should not be modified.
  10:Generated_Source\PSoC4/cyfitter_cfg.c **** * This file is automatically generated by PSoC Creator.
  11:Generated_Source\PSoC4/cyfitter_cfg.c **** *
  12:Generated_Source\PSoC4/cyfitter_cfg.c **** ********************************************************************************
  13:Generated_Source\PSoC4/cyfitter_cfg.c **** * Copyright (c) 2007-2018 Cypress Semiconductor.  All rights reserved.
  14:Generated_Source\PSoC4/cyfitter_cfg.c **** * You may use this file only in accordance with the license, terms, conditions, 
  15:Generated_Source\PSoC4/cyfitter_cfg.c **** * disclaimers, and limitations in the end user license agreement accompanying 
  16:Generated_Source\PSoC4/cyfitter_cfg.c **** * the software package with which this file was provided.
  17:Generated_Source\PSoC4/cyfitter_cfg.c **** ********************************************************************************/
  18:Generated_Source\PSoC4/cyfitter_cfg.c **** 
  19:Generated_Source\PSoC4/cyfitter_cfg.c **** #include <string.h>
  20:Generated_Source\PSoC4/cyfitter_cfg.c **** #include "cytypes.h"
  21:Generated_Source\PSoC4/cyfitter_cfg.c **** #include "cydevice_trm.h"
  22:Generated_Source\PSoC4/cyfitter_cfg.c **** #include "cyfitter.h"
  23:Generated_Source\PSoC4/cyfitter_cfg.c **** #include "CyLib.h"
  24:Generated_Source\PSoC4/cyfitter_cfg.c **** #include "cyfitter_cfg.h"
  25:Generated_Source\PSoC4/cyfitter_cfg.c **** #include "cyapicallbacks.h"
  26:Generated_Source\PSoC4/cyfitter_cfg.c **** 
  27:Generated_Source\PSoC4/cyfitter_cfg.c **** 
  28:Generated_Source\PSoC4/cyfitter_cfg.c **** #if defined(__GNUC__) || defined(__ARMCC_VERSION)
  29:Generated_Source\PSoC4/cyfitter_cfg.c ****     #define CYPACKED 
  30:Generated_Source\PSoC4/cyfitter_cfg.c ****     #define CYPACKED_ATTR __attribute__ ((packed))
  31:Generated_Source\PSoC4/cyfitter_cfg.c ****     #define CYALIGNED __attribute__ ((aligned))
ARM GAS  C:\Users\Lars\AppData\Local\Temp\ccdMQiRg.s 			page 2


  32:Generated_Source\PSoC4/cyfitter_cfg.c ****     #define CY_CFG_UNUSED __attribute__ ((unused))
  33:Generated_Source\PSoC4/cyfitter_cfg.c ****     #ifndef CY_CFG_SECTION
  34:Generated_Source\PSoC4/cyfitter_cfg.c ****         #define CY_CFG_SECTION __attribute__ ((section(".psocinit")))
  35:Generated_Source\PSoC4/cyfitter_cfg.c ****     #endif
  36:Generated_Source\PSoC4/cyfitter_cfg.c ****     
  37:Generated_Source\PSoC4/cyfitter_cfg.c ****     #if defined(__ARMCC_VERSION)
  38:Generated_Source\PSoC4/cyfitter_cfg.c ****         #define CY_CFG_MEMORY_BARRIER() __memory_changed()
  39:Generated_Source\PSoC4/cyfitter_cfg.c ****     #else
  40:Generated_Source\PSoC4/cyfitter_cfg.c ****         #define CY_CFG_MEMORY_BARRIER() __sync_synchronize()
  41:Generated_Source\PSoC4/cyfitter_cfg.c ****     #endif
  42:Generated_Source\PSoC4/cyfitter_cfg.c ****     
  43:Generated_Source\PSoC4/cyfitter_cfg.c **** #elif defined(__ICCARM__)
  44:Generated_Source\PSoC4/cyfitter_cfg.c ****     #include <intrinsics.h>
  45:Generated_Source\PSoC4/cyfitter_cfg.c **** 
  46:Generated_Source\PSoC4/cyfitter_cfg.c ****     #define CYPACKED __packed
  47:Generated_Source\PSoC4/cyfitter_cfg.c ****     #define CYPACKED_ATTR 
  48:Generated_Source\PSoC4/cyfitter_cfg.c ****     #define CYALIGNED _Pragma("data_alignment=4")
  49:Generated_Source\PSoC4/cyfitter_cfg.c ****     #define CY_CFG_UNUSED _Pragma("diag_suppress=Pe177")
  50:Generated_Source\PSoC4/cyfitter_cfg.c ****     #define CY_CFG_SECTION _Pragma("location=\".psocinit\"")
  51:Generated_Source\PSoC4/cyfitter_cfg.c ****     
  52:Generated_Source\PSoC4/cyfitter_cfg.c ****     #define CY_CFG_MEMORY_BARRIER() __DMB()
  53:Generated_Source\PSoC4/cyfitter_cfg.c ****     
  54:Generated_Source\PSoC4/cyfitter_cfg.c **** #else
  55:Generated_Source\PSoC4/cyfitter_cfg.c ****     #error Unsupported toolchain
  56:Generated_Source\PSoC4/cyfitter_cfg.c **** #endif
  57:Generated_Source\PSoC4/cyfitter_cfg.c **** 
  58:Generated_Source\PSoC4/cyfitter_cfg.c **** #ifndef CYCODE
  59:Generated_Source\PSoC4/cyfitter_cfg.c ****     #define CYCODE
  60:Generated_Source\PSoC4/cyfitter_cfg.c **** #endif
  61:Generated_Source\PSoC4/cyfitter_cfg.c **** #ifndef CYDATA
  62:Generated_Source\PSoC4/cyfitter_cfg.c ****     #define CYDATA
  63:Generated_Source\PSoC4/cyfitter_cfg.c **** #endif
  64:Generated_Source\PSoC4/cyfitter_cfg.c **** #ifndef CYFAR
  65:Generated_Source\PSoC4/cyfitter_cfg.c ****     #define CYFAR
  66:Generated_Source\PSoC4/cyfitter_cfg.c **** #endif
  67:Generated_Source\PSoC4/cyfitter_cfg.c **** #ifndef CYXDATA
  68:Generated_Source\PSoC4/cyfitter_cfg.c ****     #define CYXDATA
  69:Generated_Source\PSoC4/cyfitter_cfg.c **** #endif
  70:Generated_Source\PSoC4/cyfitter_cfg.c **** 
  71:Generated_Source\PSoC4/cyfitter_cfg.c **** 
  72:Generated_Source\PSoC4/cyfitter_cfg.c **** CY_CFG_UNUSED
  73:Generated_Source\PSoC4/cyfitter_cfg.c **** static void CYMEMZERO(void *s, size_t n);
  74:Generated_Source\PSoC4/cyfitter_cfg.c **** CY_CFG_UNUSED
  75:Generated_Source\PSoC4/cyfitter_cfg.c **** static void CYMEMZERO(void *s, size_t n)
  76:Generated_Source\PSoC4/cyfitter_cfg.c **** {
  27              		.loc 1 76 0
  28              		.cfi_startproc
  29              		@ args = 0, pretend = 0, frame = 8
  30              		@ frame_needed = 1, uses_anonymous_args = 0
  31 0000 80B5     		push	{r7, lr}
  32              		.cfi_def_cfa_offset 8
  33              		.cfi_offset 7, -8
  34              		.cfi_offset 14, -4
  35 0002 82B0     		sub	sp, sp, #8
  36              		.cfi_def_cfa_offset 16
  37 0004 00AF     		add	r7, sp, #0
  38              		.cfi_def_cfa_register 7
ARM GAS  C:\Users\Lars\AppData\Local\Temp\ccdMQiRg.s 			page 3


  39 0006 7860     		str	r0, [r7, #4]
  40 0008 3960     		str	r1, [r7]
  77:Generated_Source\PSoC4/cyfitter_cfg.c **** 	(void)memset(s, 0, n);
  41              		.loc 1 77 0
  42 000a 3A68     		ldr	r2, [r7]
  43 000c 7B68     		ldr	r3, [r7, #4]
  44 000e 0021     		movs	r1, #0
  45 0010 1800     		movs	r0, r3
  46 0012 FFF7FEFF 		bl	memset
  78:Generated_Source\PSoC4/cyfitter_cfg.c **** }
  47              		.loc 1 78 0
  48 0016 C046     		nop
  49 0018 BD46     		mov	sp, r7
  50 001a 02B0     		add	sp, sp, #8
  51              		@ sp needed
  52 001c 80BD     		pop	{r7, pc}
  53              		.cfi_endproc
  54              	.LFE32:
  55              		.size	CYMEMZERO, .-CYMEMZERO
  56 001e C046     		.section	.text.CYCONFIGCPY,"ax",%progbits
  57              		.align	2
  58              		.code	16
  59              		.thumb_func
  60              		.type	CYCONFIGCPY, %function
  61              	CYCONFIGCPY:
  62              	.LFB33:
  79:Generated_Source\PSoC4/cyfitter_cfg.c **** CY_CFG_UNUSED
  80:Generated_Source\PSoC4/cyfitter_cfg.c **** static void CYCONFIGCPY(void *dest, const void *src, size_t n);
  81:Generated_Source\PSoC4/cyfitter_cfg.c **** CY_CFG_UNUSED
  82:Generated_Source\PSoC4/cyfitter_cfg.c **** static void CYCONFIGCPY(void *dest, const void *src, size_t n)
  83:Generated_Source\PSoC4/cyfitter_cfg.c **** {
  63              		.loc 1 83 0
  64              		.cfi_startproc
  65              		@ args = 0, pretend = 0, frame = 16
  66              		@ frame_needed = 1, uses_anonymous_args = 0
  67 0000 80B5     		push	{r7, lr}
  68              		.cfi_def_cfa_offset 8
  69              		.cfi_offset 7, -8
  70              		.cfi_offset 14, -4
  71 0002 84B0     		sub	sp, sp, #16
  72              		.cfi_def_cfa_offset 24
  73 0004 00AF     		add	r7, sp, #0
  74              		.cfi_def_cfa_register 7
  75 0006 F860     		str	r0, [r7, #12]
  76 0008 B960     		str	r1, [r7, #8]
  77 000a 7A60     		str	r2, [r7, #4]
  84:Generated_Source\PSoC4/cyfitter_cfg.c **** 	(void)memcpy(dest, src, n);
  78              		.loc 1 84 0
  79 000c 7A68     		ldr	r2, [r7, #4]
  80 000e B968     		ldr	r1, [r7, #8]
  81 0010 FB68     		ldr	r3, [r7, #12]
  82 0012 1800     		movs	r0, r3
  83 0014 FFF7FEFF 		bl	memcpy
  85:Generated_Source\PSoC4/cyfitter_cfg.c **** }
  84              		.loc 1 85 0
  85 0018 C046     		nop
  86 001a BD46     		mov	sp, r7
ARM GAS  C:\Users\Lars\AppData\Local\Temp\ccdMQiRg.s 			page 4


  87 001c 04B0     		add	sp, sp, #16
  88              		@ sp needed
  89 001e 80BD     		pop	{r7, pc}
  90              		.cfi_endproc
  91              	.LFE33:
  92              		.size	CYCONFIGCPY, .-CYCONFIGCPY
  93              		.section	.text.CYCONFIGCPYCODE,"ax",%progbits
  94              		.align	2
  95              		.code	16
  96              		.thumb_func
  97              		.type	CYCONFIGCPYCODE, %function
  98              	CYCONFIGCPYCODE:
  99              	.LFB34:
  86:Generated_Source\PSoC4/cyfitter_cfg.c **** CY_CFG_UNUSED
  87:Generated_Source\PSoC4/cyfitter_cfg.c **** static void CYCONFIGCPYCODE(void *dest, const void *src, size_t n);
  88:Generated_Source\PSoC4/cyfitter_cfg.c **** CY_CFG_UNUSED
  89:Generated_Source\PSoC4/cyfitter_cfg.c **** static void CYCONFIGCPYCODE(void *dest, const void *src, size_t n)
  90:Generated_Source\PSoC4/cyfitter_cfg.c **** {
 100              		.loc 1 90 0
 101              		.cfi_startproc
 102              		@ args = 0, pretend = 0, frame = 16
 103              		@ frame_needed = 1, uses_anonymous_args = 0
 104 0000 80B5     		push	{r7, lr}
 105              		.cfi_def_cfa_offset 8
 106              		.cfi_offset 7, -8
 107              		.cfi_offset 14, -4
 108 0002 84B0     		sub	sp, sp, #16
 109              		.cfi_def_cfa_offset 24
 110 0004 00AF     		add	r7, sp, #0
 111              		.cfi_def_cfa_register 7
 112 0006 F860     		str	r0, [r7, #12]
 113 0008 B960     		str	r1, [r7, #8]
 114 000a 7A60     		str	r2, [r7, #4]
  91:Generated_Source\PSoC4/cyfitter_cfg.c **** 	(void)memcpy(dest, src, n);
 115              		.loc 1 91 0
 116 000c 7A68     		ldr	r2, [r7, #4]
 117 000e B968     		ldr	r1, [r7, #8]
 118 0010 FB68     		ldr	r3, [r7, #12]
 119 0012 1800     		movs	r0, r3
 120 0014 FFF7FEFF 		bl	memcpy
  92:Generated_Source\PSoC4/cyfitter_cfg.c **** }
 121              		.loc 1 92 0
 122 0018 C046     		nop
 123 001a BD46     		mov	sp, r7
 124 001c 04B0     		add	sp, sp, #16
 125              		@ sp needed
 126 001e 80BD     		pop	{r7, pc}
 127              		.cfi_endproc
 128              	.LFE34:
 129              		.size	CYCONFIGCPYCODE, .-CYCONFIGCPYCODE
 130              		.section	.text.cfg_write_bytes32,"ax",%progbits
 131              		.align	2
 132              		.code	16
 133              		.thumb_func
 134              		.type	cfg_write_bytes32, %function
 135              	cfg_write_bytes32:
 136              	.LFB35:
ARM GAS  C:\Users\Lars\AppData\Local\Temp\ccdMQiRg.s 			page 5


  93:Generated_Source\PSoC4/cyfitter_cfg.c **** 
  94:Generated_Source\PSoC4/cyfitter_cfg.c **** 
  95:Generated_Source\PSoC4/cyfitter_cfg.c **** 
  96:Generated_Source\PSoC4/cyfitter_cfg.c **** 
  97:Generated_Source\PSoC4/cyfitter_cfg.c **** /* Clock startup error codes                                                   */
  98:Generated_Source\PSoC4/cyfitter_cfg.c **** #define CYCLOCKSTART_NO_ERROR    0u
  99:Generated_Source\PSoC4/cyfitter_cfg.c **** #define CYCLOCKSTART_XTAL_ERROR  1u
 100:Generated_Source\PSoC4/cyfitter_cfg.c **** #define CYCLOCKSTART_32KHZ_ERROR 2u
 101:Generated_Source\PSoC4/cyfitter_cfg.c **** #define CYCLOCKSTART_PLL_ERROR   3u
 102:Generated_Source\PSoC4/cyfitter_cfg.c **** #define CYCLOCKSTART_FLL_ERROR   4u
 103:Generated_Source\PSoC4/cyfitter_cfg.c **** #define CYCLOCKSTART_WCO_ERROR   5u
 104:Generated_Source\PSoC4/cyfitter_cfg.c **** 
 105:Generated_Source\PSoC4/cyfitter_cfg.c **** 
 106:Generated_Source\PSoC4/cyfitter_cfg.c **** #ifdef CY_NEED_CYCLOCKSTARTUPERROR
 107:Generated_Source\PSoC4/cyfitter_cfg.c **** /*******************************************************************************
 108:Generated_Source\PSoC4/cyfitter_cfg.c **** * Function Name: CyClockStartupError
 109:Generated_Source\PSoC4/cyfitter_cfg.c **** ********************************************************************************
 110:Generated_Source\PSoC4/cyfitter_cfg.c **** * Summary:
 111:Generated_Source\PSoC4/cyfitter_cfg.c **** *  If an error is encountered during clock configuration (crystal startup error,
 112:Generated_Source\PSoC4/cyfitter_cfg.c **** *  PLL lock error, etc.), the system will end up here.  Unless reimplemented by
 113:Generated_Source\PSoC4/cyfitter_cfg.c **** *  the customer, this function will stop in an infinite loop.
 114:Generated_Source\PSoC4/cyfitter_cfg.c **** *
 115:Generated_Source\PSoC4/cyfitter_cfg.c **** * Parameters:
 116:Generated_Source\PSoC4/cyfitter_cfg.c **** *   void
 117:Generated_Source\PSoC4/cyfitter_cfg.c **** *
 118:Generated_Source\PSoC4/cyfitter_cfg.c **** * Return:
 119:Generated_Source\PSoC4/cyfitter_cfg.c **** *   void
 120:Generated_Source\PSoC4/cyfitter_cfg.c **** *
 121:Generated_Source\PSoC4/cyfitter_cfg.c **** *******************************************************************************/
 122:Generated_Source\PSoC4/cyfitter_cfg.c **** CY_CFG_UNUSED
 123:Generated_Source\PSoC4/cyfitter_cfg.c **** static void CyClockStartupError(uint8 errorCode);
 124:Generated_Source\PSoC4/cyfitter_cfg.c **** CY_CFG_UNUSED
 125:Generated_Source\PSoC4/cyfitter_cfg.c **** static void CyClockStartupError(uint8 errorCode)
 126:Generated_Source\PSoC4/cyfitter_cfg.c **** {
 127:Generated_Source\PSoC4/cyfitter_cfg.c ****     /* To remove the compiler warning if errorCode not used.                */
 128:Generated_Source\PSoC4/cyfitter_cfg.c ****     errorCode = errorCode;
 129:Generated_Source\PSoC4/cyfitter_cfg.c **** 
 130:Generated_Source\PSoC4/cyfitter_cfg.c ****     /* If we have a clock startup error (bad MHz crystal, PLL lock, etc.),  */
 131:Generated_Source\PSoC4/cyfitter_cfg.c ****     /* we will end up here to allow the customer to implement something to  */
 132:Generated_Source\PSoC4/cyfitter_cfg.c ****     /* deal with the clock condition.                                       */
 133:Generated_Source\PSoC4/cyfitter_cfg.c **** 
 134:Generated_Source\PSoC4/cyfitter_cfg.c **** #ifdef CY_CFG_CLOCK_STARTUP_ERROR_CALLBACK
 135:Generated_Source\PSoC4/cyfitter_cfg.c ****     CY_CFG_Clock_Startup_ErrorCallback();
 136:Generated_Source\PSoC4/cyfitter_cfg.c **** #else
 137:Generated_Source\PSoC4/cyfitter_cfg.c ****     /*  If not using CY_CFG_CLOCK_STARTUP_ERROR_CALLBACK, place your clock startup code here. */
 138:Generated_Source\PSoC4/cyfitter_cfg.c ****     /* `#START CyClockStartupError` */
 139:Generated_Source\PSoC4/cyfitter_cfg.c **** 
 140:Generated_Source\PSoC4/cyfitter_cfg.c **** 
 141:Generated_Source\PSoC4/cyfitter_cfg.c **** 
 142:Generated_Source\PSoC4/cyfitter_cfg.c ****     /* `#END` */
 143:Generated_Source\PSoC4/cyfitter_cfg.c **** 
 144:Generated_Source\PSoC4/cyfitter_cfg.c ****     while(1) {}
 145:Generated_Source\PSoC4/cyfitter_cfg.c **** #endif /* CY_CFG_CLOCK_STARTUP_ERROR_CALLBACK */
 146:Generated_Source\PSoC4/cyfitter_cfg.c **** }
 147:Generated_Source\PSoC4/cyfitter_cfg.c **** #endif
 148:Generated_Source\PSoC4/cyfitter_cfg.c **** 
 149:Generated_Source\PSoC4/cyfitter_cfg.c **** #define CY_CFG_BASE_ADDR_COUNT 7u
ARM GAS  C:\Users\Lars\AppData\Local\Temp\ccdMQiRg.s 			page 6


 150:Generated_Source\PSoC4/cyfitter_cfg.c **** CYPACKED typedef struct
 151:Generated_Source\PSoC4/cyfitter_cfg.c **** {
 152:Generated_Source\PSoC4/cyfitter_cfg.c **** 	uint8 offset;
 153:Generated_Source\PSoC4/cyfitter_cfg.c **** 	uint8 value;
 154:Generated_Source\PSoC4/cyfitter_cfg.c **** } CYPACKED_ATTR cy_cfg_addrvalue_t;
 155:Generated_Source\PSoC4/cyfitter_cfg.c **** 
 156:Generated_Source\PSoC4/cyfitter_cfg.c **** 
 157:Generated_Source\PSoC4/cyfitter_cfg.c **** 
 158:Generated_Source\PSoC4/cyfitter_cfg.c **** /*******************************************************************************
 159:Generated_Source\PSoC4/cyfitter_cfg.c **** * Function Name: cfg_write_bytes32
 160:Generated_Source\PSoC4/cyfitter_cfg.c **** ********************************************************************************
 161:Generated_Source\PSoC4/cyfitter_cfg.c **** * Summary:
 162:Generated_Source\PSoC4/cyfitter_cfg.c **** *  This function is used for setting up the chip configuration areas that
 163:Generated_Source\PSoC4/cyfitter_cfg.c **** *  contain relatively sparse data.
 164:Generated_Source\PSoC4/cyfitter_cfg.c **** *
 165:Generated_Source\PSoC4/cyfitter_cfg.c **** * Parameters:
 166:Generated_Source\PSoC4/cyfitter_cfg.c **** *   void
 167:Generated_Source\PSoC4/cyfitter_cfg.c **** *
 168:Generated_Source\PSoC4/cyfitter_cfg.c **** * Return:
 169:Generated_Source\PSoC4/cyfitter_cfg.c **** *   void
 170:Generated_Source\PSoC4/cyfitter_cfg.c **** *
 171:Generated_Source\PSoC4/cyfitter_cfg.c **** *******************************************************************************/
 172:Generated_Source\PSoC4/cyfitter_cfg.c **** static void cfg_write_bytes32(const uint32 addr_table[], const cy_cfg_addrvalue_t data_table[]);
 173:Generated_Source\PSoC4/cyfitter_cfg.c **** static void cfg_write_bytes32(const uint32 addr_table[], const cy_cfg_addrvalue_t data_table[])
 174:Generated_Source\PSoC4/cyfitter_cfg.c **** {
 137              		.loc 1 174 0
 138              		.cfi_startproc
 139              		@ args = 0, pretend = 0, frame = 24
 140              		@ frame_needed = 1, uses_anonymous_args = 0
 141 0000 80B5     		push	{r7, lr}
 142              		.cfi_def_cfa_offset 8
 143              		.cfi_offset 7, -8
 144              		.cfi_offset 14, -4
 145 0002 86B0     		sub	sp, sp, #24
 146              		.cfi_def_cfa_offset 32
 147 0004 00AF     		add	r7, sp, #0
 148              		.cfi_def_cfa_register 7
 149 0006 7860     		str	r0, [r7, #4]
 150 0008 3960     		str	r1, [r7]
 175:Generated_Source\PSoC4/cyfitter_cfg.c **** 	/* For 32-bit little-endian architectures */
 176:Generated_Source\PSoC4/cyfitter_cfg.c **** 	uint32 i, j = 0u;
 151              		.loc 1 176 0
 152 000a 0023     		movs	r3, #0
 153 000c 3B61     		str	r3, [r7, #16]
 177:Generated_Source\PSoC4/cyfitter_cfg.c **** 	for (i = 0u; i < CY_CFG_BASE_ADDR_COUNT; i++)
 154              		.loc 1 177 0
 155 000e 0023     		movs	r3, #0
 156 0010 7B61     		str	r3, [r7, #20]
 157 0012 2FE0     		b	.L5
 158              	.L8:
 159              	.LBB2:
 178:Generated_Source\PSoC4/cyfitter_cfg.c **** 	{
 179:Generated_Source\PSoC4/cyfitter_cfg.c **** 		uint32 baseAddr = addr_table[i];
 160              		.loc 1 179 0
 161 0014 7B69     		ldr	r3, [r7, #20]
 162 0016 9B00     		lsls	r3, r3, #2
 163 0018 7A68     		ldr	r2, [r7, #4]
ARM GAS  C:\Users\Lars\AppData\Local\Temp\ccdMQiRg.s 			page 7


 164 001a D318     		adds	r3, r2, r3
 165 001c 1B68     		ldr	r3, [r3]
 166 001e BB60     		str	r3, [r7, #8]
 180:Generated_Source\PSoC4/cyfitter_cfg.c **** 		uint8 count = (uint8)baseAddr;
 167              		.loc 1 180 0
 168 0020 0F23     		movs	r3, #15
 169 0022 FB18     		adds	r3, r7, r3
 170 0024 BA68     		ldr	r2, [r7, #8]
 171 0026 1A70     		strb	r2, [r3]
 181:Generated_Source\PSoC4/cyfitter_cfg.c **** 		baseAddr &= 0xFFFFFF00u;
 172              		.loc 1 181 0
 173 0028 BB68     		ldr	r3, [r7, #8]
 174 002a FF22     		movs	r2, #255
 175 002c 9343     		bics	r3, r2
 176 002e BB60     		str	r3, [r7, #8]
 182:Generated_Source\PSoC4/cyfitter_cfg.c **** 		while (count != 0u)
 177              		.loc 1 182 0
 178 0030 18E0     		b	.L6
 179              	.L7:
 183:Generated_Source\PSoC4/cyfitter_cfg.c **** 		{
 184:Generated_Source\PSoC4/cyfitter_cfg.c **** 			CY_SET_REG8((void *)(baseAddr + data_table[j].offset), data_table[j].value);
 180              		.loc 1 184 0
 181 0032 3B69     		ldr	r3, [r7, #16]
 182 0034 5B00     		lsls	r3, r3, #1
 183 0036 3A68     		ldr	r2, [r7]
 184 0038 D318     		adds	r3, r2, r3
 185 003a 1B78     		ldrb	r3, [r3]
 186 003c 1A00     		movs	r2, r3
 187 003e BB68     		ldr	r3, [r7, #8]
 188 0040 D318     		adds	r3, r2, r3
 189 0042 1900     		movs	r1, r3
 190 0044 3B69     		ldr	r3, [r7, #16]
 191 0046 5B00     		lsls	r3, r3, #1
 192 0048 3A68     		ldr	r2, [r7]
 193 004a D318     		adds	r3, r2, r3
 194 004c 5B78     		ldrb	r3, [r3, #1]
 195 004e 0B70     		strb	r3, [r1]
 185:Generated_Source\PSoC4/cyfitter_cfg.c **** 			j++;
 196              		.loc 1 185 0
 197 0050 3B69     		ldr	r3, [r7, #16]
 198 0052 0133     		adds	r3, r3, #1
 199 0054 3B61     		str	r3, [r7, #16]
 186:Generated_Source\PSoC4/cyfitter_cfg.c **** 			count--;
 200              		.loc 1 186 0
 201 0056 0F23     		movs	r3, #15
 202 0058 FB18     		adds	r3, r7, r3
 203 005a 1A78     		ldrb	r2, [r3]
 204 005c 0F23     		movs	r3, #15
 205 005e FB18     		adds	r3, r7, r3
 206 0060 013A     		subs	r2, r2, #1
 207 0062 1A70     		strb	r2, [r3]
 208              	.L6:
 182:Generated_Source\PSoC4/cyfitter_cfg.c **** 		{
 209              		.loc 1 182 0
 210 0064 0F23     		movs	r3, #15
 211 0066 FB18     		adds	r3, r7, r3
 212 0068 1B78     		ldrb	r3, [r3]
ARM GAS  C:\Users\Lars\AppData\Local\Temp\ccdMQiRg.s 			page 8


 213 006a 002B     		cmp	r3, #0
 214 006c E1D1     		bne	.L7
 215              	.LBE2:
 177:Generated_Source\PSoC4/cyfitter_cfg.c **** 	{
 216              		.loc 1 177 0 discriminator 2
 217 006e 7B69     		ldr	r3, [r7, #20]
 218 0070 0133     		adds	r3, r3, #1
 219 0072 7B61     		str	r3, [r7, #20]
 220              	.L5:
 177:Generated_Source\PSoC4/cyfitter_cfg.c **** 	{
 221              		.loc 1 177 0 is_stmt 0 discriminator 1
 222 0074 7B69     		ldr	r3, [r7, #20]
 223 0076 062B     		cmp	r3, #6
 224 0078 CCD9     		bls	.L8
 187:Generated_Source\PSoC4/cyfitter_cfg.c **** 		}
 188:Generated_Source\PSoC4/cyfitter_cfg.c **** 	}
 189:Generated_Source\PSoC4/cyfitter_cfg.c **** }
 225              		.loc 1 189 0 is_stmt 1
 226 007a C046     		nop
 227 007c BD46     		mov	sp, r7
 228 007e 06B0     		add	sp, sp, #24
 229              		@ sp needed
 230 0080 80BD     		pop	{r7, pc}
 231              		.cfi_endproc
 232              	.LFE35:
 233              		.size	cfg_write_bytes32, .-cfg_write_bytes32
 234 0082 C046     		.section	.psocinit,"ax",%progbits
 235              		.align	2
 236              		.code	16
 237              		.thumb_func
 238              		.type	ClockSetup, %function
 239              	ClockSetup:
 240              	.LFB36:
 190:Generated_Source\PSoC4/cyfitter_cfg.c **** 
 191:Generated_Source\PSoC4/cyfitter_cfg.c **** 
 192:Generated_Source\PSoC4/cyfitter_cfg.c **** /*******************************************************************************
 193:Generated_Source\PSoC4/cyfitter_cfg.c **** * Function Name: ClockSetup
 194:Generated_Source\PSoC4/cyfitter_cfg.c **** ********************************************************************************
 195:Generated_Source\PSoC4/cyfitter_cfg.c **** *
 196:Generated_Source\PSoC4/cyfitter_cfg.c **** * Summary:
 197:Generated_Source\PSoC4/cyfitter_cfg.c **** *   Performs the initialization of all of the clocks in the device based on the
 198:Generated_Source\PSoC4/cyfitter_cfg.c **** *   settings in the Clock tab of the DWR.  This includes enabling the requested
 199:Generated_Source\PSoC4/cyfitter_cfg.c **** *   clocks and setting the necessary dividers to produce the desired frequency. 
 200:Generated_Source\PSoC4/cyfitter_cfg.c **** *
 201:Generated_Source\PSoC4/cyfitter_cfg.c **** * Parameters:
 202:Generated_Source\PSoC4/cyfitter_cfg.c **** *   void
 203:Generated_Source\PSoC4/cyfitter_cfg.c **** *
 204:Generated_Source\PSoC4/cyfitter_cfg.c **** * Return:
 205:Generated_Source\PSoC4/cyfitter_cfg.c **** *   void
 206:Generated_Source\PSoC4/cyfitter_cfg.c **** *
 207:Generated_Source\PSoC4/cyfitter_cfg.c **** *******************************************************************************/
 208:Generated_Source\PSoC4/cyfitter_cfg.c **** static void ClockSetup(void);
 209:Generated_Source\PSoC4/cyfitter_cfg.c **** CY_CFG_SECTION
 210:Generated_Source\PSoC4/cyfitter_cfg.c **** static void ClockSetup(void)
 211:Generated_Source\PSoC4/cyfitter_cfg.c **** {
 241              		.loc 1 211 0
 242              		.cfi_startproc
ARM GAS  C:\Users\Lars\AppData\Local\Temp\ccdMQiRg.s 			page 9


 243              		@ args = 0, pretend = 0, frame = 0
 244              		@ frame_needed = 1, uses_anonymous_args = 0
 245 0000 80B5     		push	{r7, lr}
 246              		.cfi_def_cfa_offset 8
 247              		.cfi_offset 7, -8
 248              		.cfi_offset 14, -4
 249 0002 00AF     		add	r7, sp, #0
 250              		.cfi_def_cfa_register 7
 212:Generated_Source\PSoC4/cyfitter_cfg.c **** 	/* Enable HALF_EN before trimming for the flash accelerator. */
 213:Generated_Source\PSoC4/cyfitter_cfg.c **** 	CY_SET_REG32((void CYXDATA *)(CYREG_CLK_SELECT), (CY_GET_REG32((void *)CYREG_CLK_SELECT) | 0x00040
 251              		.loc 1 213 0
 252 0004 134B     		ldr	r3, .L10
 253 0006 134A     		ldr	r2, .L10
 254 0008 1268     		ldr	r2, [r2]
 255 000a 8021     		movs	r1, #128
 256 000c C902     		lsls	r1, r1, #11
 257 000e 0A43     		orrs	r2, r1
 258 0010 1A60     		str	r2, [r3]
 214:Generated_Source\PSoC4/cyfitter_cfg.c **** 
 215:Generated_Source\PSoC4/cyfitter_cfg.c **** 	/* Setup and trim IMO based on desired frequency. */
 216:Generated_Source\PSoC4/cyfitter_cfg.c **** 	CySysClkWriteImoFreq(36u);
 259              		.loc 1 216 0
 260 0012 2420     		movs	r0, #36
 261 0014 FFF7FEFF 		bl	CySysClkWriteImoFreq
 217:Generated_Source\PSoC4/cyfitter_cfg.c **** 	/* CYDEV_CLK_ILO_CONFIG Starting address: CYDEV_CLK_ILO_CONFIG */
 218:Generated_Source\PSoC4/cyfitter_cfg.c **** 	CY_SET_REG32((void *)(CYREG_CLK_ILO_CONFIG), 0x80000006u);
 262              		.loc 1 218 0
 263 0018 0F4B     		ldr	r3, .L10+4
 264 001a 104A     		ldr	r2, .L10+8
 265 001c 1A60     		str	r2, [r3]
 219:Generated_Source\PSoC4/cyfitter_cfg.c **** 
 220:Generated_Source\PSoC4/cyfitter_cfg.c **** 
 221:Generated_Source\PSoC4/cyfitter_cfg.c **** 	/* CYDEV_CLK_SELECT00 Starting address: CYDEV_CLK_SELECT00 */
 222:Generated_Source\PSoC4/cyfitter_cfg.c **** 	CY_SET_REG32((void *)(CYREG_CLK_SELECT03), 0x00000010u);
 266              		.loc 1 222 0
 267 001e 104B     		ldr	r3, .L10+12
 268 0020 1022     		movs	r2, #16
 269 0022 1A60     		str	r2, [r3]
 223:Generated_Source\PSoC4/cyfitter_cfg.c **** 	CY_SET_REG32((void *)(CYREG_CLK_SELECT07), 0x00000020u);
 270              		.loc 1 223 0
 271 0024 0F4B     		ldr	r3, .L10+16
 272 0026 2022     		movs	r2, #32
 273 0028 1A60     		str	r2, [r3]
 224:Generated_Source\PSoC4/cyfitter_cfg.c **** 
 225:Generated_Source\PSoC4/cyfitter_cfg.c **** 	/* CYDEV_CLK_IMO_CONFIG Starting address: CYDEV_CLK_IMO_CONFIG */
 226:Generated_Source\PSoC4/cyfitter_cfg.c **** 	CY_SET_REG32((void *)(CYREG_CLK_IMO_CONFIG), 0x82000000u);
 274              		.loc 1 226 0
 275 002a 0F4B     		ldr	r3, .L10+20
 276 002c 8222     		movs	r2, #130
 277 002e 1206     		lsls	r2, r2, #24
 278 0030 1A60     		str	r2, [r3]
 227:Generated_Source\PSoC4/cyfitter_cfg.c **** 
 228:Generated_Source\PSoC4/cyfitter_cfg.c **** 	/* CYDEV_CLK_SELECT Starting address: CYDEV_CLK_SELECT */
 229:Generated_Source\PSoC4/cyfitter_cfg.c **** 	CY_SET_REG32((void *)(CYREG_CLK_SELECT), 0x00040000u);
 279              		.loc 1 229 0
 280 0032 084B     		ldr	r3, .L10
 281 0034 8022     		movs	r2, #128
ARM GAS  C:\Users\Lars\AppData\Local\Temp\ccdMQiRg.s 			page 10


 282 0036 D202     		lsls	r2, r2, #11
 283 0038 1A60     		str	r2, [r3]
 230:Generated_Source\PSoC4/cyfitter_cfg.c **** 
 231:Generated_Source\PSoC4/cyfitter_cfg.c **** 	/* CYDEV_CLK_DIVIDER_A00 Starting address: CYDEV_CLK_DIVIDER_A00 */
 232:Generated_Source\PSoC4/cyfitter_cfg.c **** 	CY_SET_REG32((void *)(CYREG_CLK_DIVIDER_A00), 0x80000000u);
 284              		.loc 1 232 0
 285 003a 0C4B     		ldr	r3, .L10+24
 286 003c 8022     		movs	r2, #128
 287 003e 1206     		lsls	r2, r2, #24
 288 0040 1A60     		str	r2, [r3]
 233:Generated_Source\PSoC4/cyfitter_cfg.c **** 
 234:Generated_Source\PSoC4/cyfitter_cfg.c **** 	/* CYDEV_CLK_DIVIDER_B00 Starting address: CYDEV_CLK_DIVIDER_B00 */
 235:Generated_Source\PSoC4/cyfitter_cfg.c **** 	CY_SET_REG32((void *)(CYREG_CLK_DIVIDER_B00), 0x80000003u);
 289              		.loc 1 235 0
 290 0042 0B4B     		ldr	r3, .L10+28
 291 0044 0B4A     		ldr	r2, .L10+32
 292 0046 1A60     		str	r2, [r3]
 236:Generated_Source\PSoC4/cyfitter_cfg.c **** 
 237:Generated_Source\PSoC4/cyfitter_cfg.c **** 	CY_SET_REG32((void *)(CYREG_WDT_CONFIG), 0x00000000u);
 293              		.loc 1 237 0
 294 0048 0B4B     		ldr	r3, .L10+36
 295 004a 0022     		movs	r2, #0
 296 004c 1A60     		str	r2, [r3]
 238:Generated_Source\PSoC4/cyfitter_cfg.c **** }
 297              		.loc 1 238 0
 298 004e C046     		nop
 299 0050 BD46     		mov	sp, r7
 300              		@ sp needed
 301 0052 80BD     		pop	{r7, pc}
 302              	.L11:
 303              		.align	2
 304              	.L10:
 305 0054 00010B40 		.word	1074462976
 306 0058 04010B40 		.word	1074462980
 307 005c 06000080 		.word	-2147483642
 308 0060 0C020240 		.word	1073873420
 309 0064 1C020240 		.word	1073873436
 310 0068 08010B40 		.word	1074462984
 311 006c 00000240 		.word	1073872896
 312 0070 40000240 		.word	1073872960
 313 0074 03000080 		.word	-2147483645
 314 0078 0C020B40 		.word	1074463244
 315              		.cfi_endproc
 316              	.LFE36:
 317              		.size	ClockSetup, .-ClockSetup
 318              		.section	.text.AnalogSetDefault,"ax",%progbits
 319              		.align	2
 320              		.code	16
 321              		.thumb_func
 322              		.type	AnalogSetDefault, %function
 323              	AnalogSetDefault:
 324              	.LFB37:
 239:Generated_Source\PSoC4/cyfitter_cfg.c **** 
 240:Generated_Source\PSoC4/cyfitter_cfg.c **** 
 241:Generated_Source\PSoC4/cyfitter_cfg.c **** /* Analog API Functions */
 242:Generated_Source\PSoC4/cyfitter_cfg.c **** 
 243:Generated_Source\PSoC4/cyfitter_cfg.c **** 
ARM GAS  C:\Users\Lars\AppData\Local\Temp\ccdMQiRg.s 			page 11


 244:Generated_Source\PSoC4/cyfitter_cfg.c **** /*******************************************************************************
 245:Generated_Source\PSoC4/cyfitter_cfg.c **** * Function Name: AnalogSetDefault
 246:Generated_Source\PSoC4/cyfitter_cfg.c **** ********************************************************************************
 247:Generated_Source\PSoC4/cyfitter_cfg.c **** *
 248:Generated_Source\PSoC4/cyfitter_cfg.c **** * Summary:
 249:Generated_Source\PSoC4/cyfitter_cfg.c **** *  Sets up the analog portions of the chip to default values based on chip
 250:Generated_Source\PSoC4/cyfitter_cfg.c **** *  configuration options from the project.
 251:Generated_Source\PSoC4/cyfitter_cfg.c **** *
 252:Generated_Source\PSoC4/cyfitter_cfg.c **** * Parameters:
 253:Generated_Source\PSoC4/cyfitter_cfg.c **** *  void
 254:Generated_Source\PSoC4/cyfitter_cfg.c **** *
 255:Generated_Source\PSoC4/cyfitter_cfg.c **** * Return:
 256:Generated_Source\PSoC4/cyfitter_cfg.c **** *  void
 257:Generated_Source\PSoC4/cyfitter_cfg.c **** *
 258:Generated_Source\PSoC4/cyfitter_cfg.c **** *******************************************************************************/
 259:Generated_Source\PSoC4/cyfitter_cfg.c **** static void AnalogSetDefault(void);
 260:Generated_Source\PSoC4/cyfitter_cfg.c **** static void AnalogSetDefault(void)
 261:Generated_Source\PSoC4/cyfitter_cfg.c **** {
 325              		.loc 1 261 0
 326              		.cfi_startproc
 327              		@ args = 0, pretend = 0, frame = 0
 328              		@ frame_needed = 1, uses_anonymous_args = 0
 329 0000 80B5     		push	{r7, lr}
 330              		.cfi_def_cfa_offset 8
 331              		.cfi_offset 7, -8
 332              		.cfi_offset 14, -4
 333 0002 00AF     		add	r7, sp, #0
 334              		.cfi_def_cfa_register 7
 262:Generated_Source\PSoC4/cyfitter_cfg.c **** 	CY_SET_XTND_REG32((void CYFAR *)CYREG_CTBM_OA0_SW, 0x00044000u);
 335              		.loc 1 262 0
 336 0004 0B4B     		ldr	r3, .L13
 337 0006 8822     		movs	r2, #136
 338 0008 D202     		lsls	r2, r2, #11
 339 000a 1A60     		str	r2, [r3]
 263:Generated_Source\PSoC4/cyfitter_cfg.c **** 	CY_SET_XTND_REG32((void CYFAR *)CYREG_CTBM_OA1_SW, 0x00084000u);
 340              		.loc 1 263 0
 341 000c 0A4B     		ldr	r3, .L13+4
 342 000e 8422     		movs	r2, #132
 343 0010 1203     		lsls	r2, r2, #12
 344 0012 1A60     		str	r2, [r3]
 264:Generated_Source\PSoC4/cyfitter_cfg.c **** 	CY_SET_XTND_REG32((void CYFAR *)CYREG_CTBM_CTB_SW_HW_CTRL, 0x0000000Cu);
 345              		.loc 1 264 0
 346 0014 094B     		ldr	r3, .L13+8
 347 0016 0C22     		movs	r2, #12
 348 0018 1A60     		str	r2, [r3]
 265:Generated_Source\PSoC4/cyfitter_cfg.c **** 	CY_SET_XTND_REG32((void CYFAR *)CYREG_SAR_MUX_SWITCH0, 0x02430000u);
 349              		.loc 1 265 0
 350 001a 094B     		ldr	r3, .L13+12
 351 001c 094A     		ldr	r2, .L13+16
 352 001e 1A60     		str	r2, [r3]
 266:Generated_Source\PSoC4/cyfitter_cfg.c **** 	CY_SET_XTND_REG32((void CYFAR *)CYREG_SAR_MUX_SWITCH_HW_CTRL, 0x00C30000u);
 353              		.loc 1 266 0
 354 0020 094B     		ldr	r3, .L13+20
 355 0022 C322     		movs	r2, #195
 356 0024 1204     		lsls	r2, r2, #16
 357 0026 1A60     		str	r2, [r3]
 267:Generated_Source\PSoC4/cyfitter_cfg.c **** 	SetAnalogRoutingPumps(1);
ARM GAS  C:\Users\Lars\AppData\Local\Temp\ccdMQiRg.s 			page 12


 358              		.loc 1 267 0
 359 0028 0120     		movs	r0, #1
 360 002a FFF7FEFF 		bl	SetAnalogRoutingPumps
 268:Generated_Source\PSoC4/cyfitter_cfg.c **** }
 361              		.loc 1 268 0
 362 002e C046     		nop
 363 0030 BD46     		mov	sp, r7
 364              		@ sp needed
 365 0032 80BD     		pop	{r7, pc}
 366              	.L14:
 367              		.align	2
 368              	.L13:
 369 0034 80001040 		.word	1074790528
 370 0038 88001040 		.word	1074790536
 371 003c C0001040 		.word	1074790592
 372 0040 00031A40 		.word	1075446528
 373 0044 00004302 		.word	37945344
 374 0048 40031A40 		.word	1075446592
 375              		.cfi_endproc
 376              	.LFE37:
 377              		.size	AnalogSetDefault, .-AnalogSetDefault
 378              		.section	.text.SetAnalogRoutingPumps,"ax",%progbits
 379              		.align	2
 380              		.global	SetAnalogRoutingPumps
 381              		.code	16
 382              		.thumb_func
 383              		.type	SetAnalogRoutingPumps, %function
 384              	SetAnalogRoutingPumps:
 385              	.LFB38:
 269:Generated_Source\PSoC4/cyfitter_cfg.c **** 
 270:Generated_Source\PSoC4/cyfitter_cfg.c **** 
 271:Generated_Source\PSoC4/cyfitter_cfg.c **** /*******************************************************************************
 272:Generated_Source\PSoC4/cyfitter_cfg.c **** * Function Name: SetAnalogRoutingPumps
 273:Generated_Source\PSoC4/cyfitter_cfg.c **** ********************************************************************************
 274:Generated_Source\PSoC4/cyfitter_cfg.c **** *
 275:Generated_Source\PSoC4/cyfitter_cfg.c **** * Summary:
 276:Generated_Source\PSoC4/cyfitter_cfg.c **** * Enables or disables the analog pumps feeding analog routing switches.
 277:Generated_Source\PSoC4/cyfitter_cfg.c **** * Intended to be called at startup, based on the Vdda system configuration;
 278:Generated_Source\PSoC4/cyfitter_cfg.c **** * may be called during operation when the user informs us that the Vdda voltage crossed the pump th
 279:Generated_Source\PSoC4/cyfitter_cfg.c **** *
 280:Generated_Source\PSoC4/cyfitter_cfg.c **** * Parameters:
 281:Generated_Source\PSoC4/cyfitter_cfg.c **** *  enabled - 1 to enable the pumps, 0 to disable the pumps
 282:Generated_Source\PSoC4/cyfitter_cfg.c **** *
 283:Generated_Source\PSoC4/cyfitter_cfg.c **** * Return:
 284:Generated_Source\PSoC4/cyfitter_cfg.c **** *  void
 285:Generated_Source\PSoC4/cyfitter_cfg.c **** *
 286:Generated_Source\PSoC4/cyfitter_cfg.c **** *******************************************************************************/
 287:Generated_Source\PSoC4/cyfitter_cfg.c **** void SetAnalogRoutingPumps(uint8 enabled)
 288:Generated_Source\PSoC4/cyfitter_cfg.c **** {
 386              		.loc 1 288 0
 387              		.cfi_startproc
 388              		@ args = 0, pretend = 0, frame = 16
 389              		@ frame_needed = 1, uses_anonymous_args = 0
 390 0000 80B5     		push	{r7, lr}
 391              		.cfi_def_cfa_offset 8
 392              		.cfi_offset 7, -8
 393              		.cfi_offset 14, -4
ARM GAS  C:\Users\Lars\AppData\Local\Temp\ccdMQiRg.s 			page 13


 394 0002 84B0     		sub	sp, sp, #16
 395              		.cfi_def_cfa_offset 24
 396 0004 00AF     		add	r7, sp, #0
 397              		.cfi_def_cfa_register 7
 398 0006 0200     		movs	r2, r0
 399 0008 FB1D     		adds	r3, r7, #7
 400 000a 1A70     		strb	r2, [r3]
 289:Generated_Source\PSoC4/cyfitter_cfg.c **** 	uint32 regValue = CY_GET_XTND_REG32((void *)(CYREG_SAR_PUMP_CTRL));
 401              		.loc 1 289 0
 402 000c 0B4B     		ldr	r3, .L18
 403 000e 1B68     		ldr	r3, [r3]
 404 0010 FB60     		str	r3, [r7, #12]
 290:Generated_Source\PSoC4/cyfitter_cfg.c **** 	if (enabled != 0u)
 405              		.loc 1 290 0
 406 0012 FB1D     		adds	r3, r7, #7
 407 0014 1B78     		ldrb	r3, [r3]
 408 0016 002B     		cmp	r3, #0
 409 0018 05D0     		beq	.L16
 291:Generated_Source\PSoC4/cyfitter_cfg.c **** 	{
 292:Generated_Source\PSoC4/cyfitter_cfg.c **** 		regValue |= 0x80000000u;
 410              		.loc 1 292 0
 411 001a FB68     		ldr	r3, [r7, #12]
 412 001c 8022     		movs	r2, #128
 413 001e 1206     		lsls	r2, r2, #24
 414 0020 1343     		orrs	r3, r2
 415 0022 FB60     		str	r3, [r7, #12]
 416 0024 03E0     		b	.L17
 417              	.L16:
 293:Generated_Source\PSoC4/cyfitter_cfg.c **** 	}
 294:Generated_Source\PSoC4/cyfitter_cfg.c **** 	else
 295:Generated_Source\PSoC4/cyfitter_cfg.c **** 	{
 296:Generated_Source\PSoC4/cyfitter_cfg.c **** 		regValue &= ~0x80000000u;
 418              		.loc 1 296 0
 419 0026 FB68     		ldr	r3, [r7, #12]
 420 0028 5B00     		lsls	r3, r3, #1
 421 002a 5B08     		lsrs	r3, r3, #1
 422 002c FB60     		str	r3, [r7, #12]
 423              	.L17:
 297:Generated_Source\PSoC4/cyfitter_cfg.c **** 	}
 298:Generated_Source\PSoC4/cyfitter_cfg.c **** 	CY_SET_XTND_REG32((void *)(CYREG_SAR_PUMP_CTRL), regValue);
 424              		.loc 1 298 0
 425 002e 034B     		ldr	r3, .L18
 426 0030 FA68     		ldr	r2, [r7, #12]
 427 0032 1A60     		str	r2, [r3]
 299:Generated_Source\PSoC4/cyfitter_cfg.c **** }
 428              		.loc 1 299 0
 429 0034 C046     		nop
 430 0036 BD46     		mov	sp, r7
 431 0038 04B0     		add	sp, sp, #16
 432              		@ sp needed
 433 003a 80BD     		pop	{r7, pc}
 434              	.L19:
 435              		.align	2
 436              	.L18:
 437 003c 80031A40 		.word	1075446656
 438              		.cfi_endproc
 439              	.LFE38:
ARM GAS  C:\Users\Lars\AppData\Local\Temp\ccdMQiRg.s 			page 14


 440              		.size	SetAnalogRoutingPumps, .-SetAnalogRoutingPumps
 441              		.section	.text.AMux_High_Set,"ax",%progbits
 442              		.align	2
 443              		.global	AMux_High_Set
 444              		.code	16
 445              		.thumb_func
 446              		.type	AMux_High_Set, %function
 447              	AMux_High_Set:
 448              	.LFB39:
 300:Generated_Source\PSoC4/cyfitter_cfg.c **** 
 301:Generated_Source\PSoC4/cyfitter_cfg.c **** 
 302:Generated_Source\PSoC4/cyfitter_cfg.c **** #define CY_AMUX_UNUSED CYREG_CM0_ROM_DWT
 303:Generated_Source\PSoC4/cyfitter_cfg.c **** /*******************************************************************************
 304:Generated_Source\PSoC4/cyfitter_cfg.c **** * Function Name: AMux_High_Set
 305:Generated_Source\PSoC4/cyfitter_cfg.c **** ********************************************************************************
 306:Generated_Source\PSoC4/cyfitter_cfg.c **** * Summary:
 307:Generated_Source\PSoC4/cyfitter_cfg.c **** *  This function is used to set a particular channel as active on the AMux.
 308:Generated_Source\PSoC4/cyfitter_cfg.c **** *
 309:Generated_Source\PSoC4/cyfitter_cfg.c **** * Parameters:  
 310:Generated_Source\PSoC4/cyfitter_cfg.c **** *   channel - The mux channel input to set as active
 311:Generated_Source\PSoC4/cyfitter_cfg.c **** *
 312:Generated_Source\PSoC4/cyfitter_cfg.c **** * Return:
 313:Generated_Source\PSoC4/cyfitter_cfg.c **** *   void
 314:Generated_Source\PSoC4/cyfitter_cfg.c **** *
 315:Generated_Source\PSoC4/cyfitter_cfg.c **** *******************************************************************************/
 316:Generated_Source\PSoC4/cyfitter_cfg.c **** void AMux_High_Set(uint8 channel)
 317:Generated_Source\PSoC4/cyfitter_cfg.c **** {
 449              		.loc 1 317 0
 450              		.cfi_startproc
 451              		@ args = 0, pretend = 0, frame = 8
 452              		@ frame_needed = 1, uses_anonymous_args = 0
 453 0000 80B5     		push	{r7, lr}
 454              		.cfi_def_cfa_offset 8
 455              		.cfi_offset 7, -8
 456              		.cfi_offset 14, -4
 457 0002 82B0     		sub	sp, sp, #8
 458              		.cfi_def_cfa_offset 16
 459 0004 00AF     		add	r7, sp, #0
 460              		.cfi_def_cfa_register 7
 461 0006 0200     		movs	r2, r0
 462 0008 FB1D     		adds	r3, r7, #7
 463 000a 1A70     		strb	r2, [r3]
 318:Generated_Source\PSoC4/cyfitter_cfg.c **** 	switch (channel) {
 464              		.loc 1 318 0
 465 000c FB1D     		adds	r3, r7, #7
 466 000e 1B78     		ldrb	r3, [r3]
 467 0010 012B     		cmp	r3, #1
 468 0012 00D0     		beq	.L22
 319:Generated_Source\PSoC4/cyfitter_cfg.c **** 		case 1u:
 320:Generated_Source\PSoC4/cyfitter_cfg.c **** 			CY_SET_REG32((void CYXDATA *)CYREG_CTBM_OA0_SW, (0x04u));
 321:Generated_Source\PSoC4/cyfitter_cfg.c **** 			break;
 322:Generated_Source\PSoC4/cyfitter_cfg.c **** 		default:
 323:Generated_Source\PSoC4/cyfitter_cfg.c **** 			break;
 469              		.loc 1 323 0
 470 0014 03E0     		b	.L23
 471              	.L22:
 320:Generated_Source\PSoC4/cyfitter_cfg.c **** 			break;
ARM GAS  C:\Users\Lars\AppData\Local\Temp\ccdMQiRg.s 			page 15


 472              		.loc 1 320 0
 473 0016 044B     		ldr	r3, .L24
 474 0018 0422     		movs	r2, #4
 475 001a 1A60     		str	r2, [r3]
 321:Generated_Source\PSoC4/cyfitter_cfg.c **** 		default:
 476              		.loc 1 321 0
 477 001c C046     		nop
 478              	.L23:
 324:Generated_Source\PSoC4/cyfitter_cfg.c **** 	}
 325:Generated_Source\PSoC4/cyfitter_cfg.c **** }
 479              		.loc 1 325 0
 480 001e C046     		nop
 481 0020 BD46     		mov	sp, r7
 482 0022 02B0     		add	sp, sp, #8
 483              		@ sp needed
 484 0024 80BD     		pop	{r7, pc}
 485              	.L25:
 486 0026 C046     		.align	2
 487              	.L24:
 488 0028 80001040 		.word	1074790528
 489              		.cfi_endproc
 490              	.LFE39:
 491              		.size	AMux_High_Set, .-AMux_High_Set
 492              		.section	.text.AMux_High_Unset,"ax",%progbits
 493              		.align	2
 494              		.global	AMux_High_Unset
 495              		.code	16
 496              		.thumb_func
 497              		.type	AMux_High_Unset, %function
 498              	AMux_High_Unset:
 499              	.LFB40:
 326:Generated_Source\PSoC4/cyfitter_cfg.c **** 
 327:Generated_Source\PSoC4/cyfitter_cfg.c **** /*******************************************************************************
 328:Generated_Source\PSoC4/cyfitter_cfg.c **** * Function Name: AMux_High_Unset
 329:Generated_Source\PSoC4/cyfitter_cfg.c **** ********************************************************************************
 330:Generated_Source\PSoC4/cyfitter_cfg.c **** * Summary:
 331:Generated_Source\PSoC4/cyfitter_cfg.c **** *  This function is used to clear a particular channel from being active on the
 332:Generated_Source\PSoC4/cyfitter_cfg.c **** *  AMux.
 333:Generated_Source\PSoC4/cyfitter_cfg.c **** *
 334:Generated_Source\PSoC4/cyfitter_cfg.c **** * Parameters:  
 335:Generated_Source\PSoC4/cyfitter_cfg.c **** *   channel - The mux channel input to mark inactive
 336:Generated_Source\PSoC4/cyfitter_cfg.c **** *
 337:Generated_Source\PSoC4/cyfitter_cfg.c **** * Return:
 338:Generated_Source\PSoC4/cyfitter_cfg.c **** *   void
 339:Generated_Source\PSoC4/cyfitter_cfg.c **** *
 340:Generated_Source\PSoC4/cyfitter_cfg.c **** *******************************************************************************/
 341:Generated_Source\PSoC4/cyfitter_cfg.c **** void AMux_High_Unset(uint8 channel)
 342:Generated_Source\PSoC4/cyfitter_cfg.c **** {
 500              		.loc 1 342 0
 501              		.cfi_startproc
 502              		@ args = 0, pretend = 0, frame = 8
 503              		@ frame_needed = 1, uses_anonymous_args = 0
 504 0000 80B5     		push	{r7, lr}
 505              		.cfi_def_cfa_offset 8
 506              		.cfi_offset 7, -8
 507              		.cfi_offset 14, -4
 508 0002 82B0     		sub	sp, sp, #8
ARM GAS  C:\Users\Lars\AppData\Local\Temp\ccdMQiRg.s 			page 16


 509              		.cfi_def_cfa_offset 16
 510 0004 00AF     		add	r7, sp, #0
 511              		.cfi_def_cfa_register 7
 512 0006 0200     		movs	r2, r0
 513 0008 FB1D     		adds	r3, r7, #7
 514 000a 1A70     		strb	r2, [r3]
 343:Generated_Source\PSoC4/cyfitter_cfg.c **** 	switch (channel) {
 515              		.loc 1 343 0
 516 000c FB1D     		adds	r3, r7, #7
 517 000e 1B78     		ldrb	r3, [r3]
 518 0010 012B     		cmp	r3, #1
 519 0012 00D0     		beq	.L28
 344:Generated_Source\PSoC4/cyfitter_cfg.c **** 		case 1u:
 345:Generated_Source\PSoC4/cyfitter_cfg.c **** 			CY_SET_REG32((void CYXDATA *)CYREG_CTBM_OA0_SW_CLEAR, (0x04u));
 346:Generated_Source\PSoC4/cyfitter_cfg.c **** 			break;
 347:Generated_Source\PSoC4/cyfitter_cfg.c **** 		default:
 348:Generated_Source\PSoC4/cyfitter_cfg.c **** 			break;
 520              		.loc 1 348 0
 521 0014 03E0     		b	.L29
 522              	.L28:
 345:Generated_Source\PSoC4/cyfitter_cfg.c **** 			break;
 523              		.loc 1 345 0
 524 0016 044B     		ldr	r3, .L30
 525 0018 0422     		movs	r2, #4
 526 001a 1A60     		str	r2, [r3]
 346:Generated_Source\PSoC4/cyfitter_cfg.c **** 		default:
 527              		.loc 1 346 0
 528 001c C046     		nop
 529              	.L29:
 349:Generated_Source\PSoC4/cyfitter_cfg.c **** 	}
 350:Generated_Source\PSoC4/cyfitter_cfg.c **** }
 530              		.loc 1 350 0
 531 001e C046     		nop
 532 0020 BD46     		mov	sp, r7
 533 0022 02B0     		add	sp, sp, #8
 534              		@ sp needed
 535 0024 80BD     		pop	{r7, pc}
 536              	.L31:
 537 0026 C046     		.align	2
 538              	.L30:
 539 0028 84001040 		.word	1074790532
 540              		.cfi_endproc
 541              	.LFE40:
 542              		.size	AMux_High_Unset, .-AMux_High_Unset
 543              		.section	.text.AMux_Low_Set,"ax",%progbits
 544              		.align	2
 545              		.global	AMux_Low_Set
 546              		.code	16
 547              		.thumb_func
 548              		.type	AMux_Low_Set, %function
 549              	AMux_Low_Set:
 550              	.LFB41:
 351:Generated_Source\PSoC4/cyfitter_cfg.c **** 
 352:Generated_Source\PSoC4/cyfitter_cfg.c **** /*******************************************************************************
 353:Generated_Source\PSoC4/cyfitter_cfg.c **** * Function Name: AMux_Low_Set
 354:Generated_Source\PSoC4/cyfitter_cfg.c **** ********************************************************************************
 355:Generated_Source\PSoC4/cyfitter_cfg.c **** * Summary:
ARM GAS  C:\Users\Lars\AppData\Local\Temp\ccdMQiRg.s 			page 17


 356:Generated_Source\PSoC4/cyfitter_cfg.c **** *  This function is used to set a particular channel as active on the AMux.
 357:Generated_Source\PSoC4/cyfitter_cfg.c **** *
 358:Generated_Source\PSoC4/cyfitter_cfg.c **** * Parameters:  
 359:Generated_Source\PSoC4/cyfitter_cfg.c **** *   channel - The mux channel input to set as active
 360:Generated_Source\PSoC4/cyfitter_cfg.c **** *
 361:Generated_Source\PSoC4/cyfitter_cfg.c **** * Return:
 362:Generated_Source\PSoC4/cyfitter_cfg.c **** *   void
 363:Generated_Source\PSoC4/cyfitter_cfg.c **** *
 364:Generated_Source\PSoC4/cyfitter_cfg.c **** *******************************************************************************/
 365:Generated_Source\PSoC4/cyfitter_cfg.c **** void AMux_Low_Set(uint8 channel)
 366:Generated_Source\PSoC4/cyfitter_cfg.c **** {
 551              		.loc 1 366 0
 552              		.cfi_startproc
 553              		@ args = 0, pretend = 0, frame = 8
 554              		@ frame_needed = 1, uses_anonymous_args = 0
 555 0000 80B5     		push	{r7, lr}
 556              		.cfi_def_cfa_offset 8
 557              		.cfi_offset 7, -8
 558              		.cfi_offset 14, -4
 559 0002 82B0     		sub	sp, sp, #8
 560              		.cfi_def_cfa_offset 16
 561 0004 00AF     		add	r7, sp, #0
 562              		.cfi_def_cfa_register 7
 563 0006 0200     		movs	r2, r0
 564 0008 FB1D     		adds	r3, r7, #7
 565 000a 1A70     		strb	r2, [r3]
 367:Generated_Source\PSoC4/cyfitter_cfg.c **** 	switch (channel) {
 566              		.loc 1 367 0
 567 000c FB1D     		adds	r3, r7, #7
 568 000e 1B78     		ldrb	r3, [r3]
 569 0010 012B     		cmp	r3, #1
 570 0012 00D0     		beq	.L34
 368:Generated_Source\PSoC4/cyfitter_cfg.c **** 		case 1u:
 369:Generated_Source\PSoC4/cyfitter_cfg.c **** 			CY_SET_REG32((void CYXDATA *)CYREG_CTBM_OA1_SW, (0x02u));
 370:Generated_Source\PSoC4/cyfitter_cfg.c **** 			break;
 371:Generated_Source\PSoC4/cyfitter_cfg.c **** 		default:
 372:Generated_Source\PSoC4/cyfitter_cfg.c **** 			break;
 571              		.loc 1 372 0
 572 0014 03E0     		b	.L35
 573              	.L34:
 369:Generated_Source\PSoC4/cyfitter_cfg.c **** 			break;
 574              		.loc 1 369 0
 575 0016 044B     		ldr	r3, .L36
 576 0018 0222     		movs	r2, #2
 577 001a 1A60     		str	r2, [r3]
 370:Generated_Source\PSoC4/cyfitter_cfg.c **** 		default:
 578              		.loc 1 370 0
 579 001c C046     		nop
 580              	.L35:
 373:Generated_Source\PSoC4/cyfitter_cfg.c **** 	}
 374:Generated_Source\PSoC4/cyfitter_cfg.c **** }
 581              		.loc 1 374 0
 582 001e C046     		nop
 583 0020 BD46     		mov	sp, r7
 584 0022 02B0     		add	sp, sp, #8
 585              		@ sp needed
 586 0024 80BD     		pop	{r7, pc}
ARM GAS  C:\Users\Lars\AppData\Local\Temp\ccdMQiRg.s 			page 18


 587              	.L37:
 588 0026 C046     		.align	2
 589              	.L36:
 590 0028 88001040 		.word	1074790536
 591              		.cfi_endproc
 592              	.LFE41:
 593              		.size	AMux_Low_Set, .-AMux_Low_Set
 594              		.section	.text.AMux_Low_Unset,"ax",%progbits
 595              		.align	2
 596              		.global	AMux_Low_Unset
 597              		.code	16
 598              		.thumb_func
 599              		.type	AMux_Low_Unset, %function
 600              	AMux_Low_Unset:
 601              	.LFB42:
 375:Generated_Source\PSoC4/cyfitter_cfg.c **** 
 376:Generated_Source\PSoC4/cyfitter_cfg.c **** /*******************************************************************************
 377:Generated_Source\PSoC4/cyfitter_cfg.c **** * Function Name: AMux_Low_Unset
 378:Generated_Source\PSoC4/cyfitter_cfg.c **** ********************************************************************************
 379:Generated_Source\PSoC4/cyfitter_cfg.c **** * Summary:
 380:Generated_Source\PSoC4/cyfitter_cfg.c **** *  This function is used to clear a particular channel from being active on the
 381:Generated_Source\PSoC4/cyfitter_cfg.c **** *  AMux.
 382:Generated_Source\PSoC4/cyfitter_cfg.c **** *
 383:Generated_Source\PSoC4/cyfitter_cfg.c **** * Parameters:  
 384:Generated_Source\PSoC4/cyfitter_cfg.c **** *   channel - The mux channel input to mark inactive
 385:Generated_Source\PSoC4/cyfitter_cfg.c **** *
 386:Generated_Source\PSoC4/cyfitter_cfg.c **** * Return:
 387:Generated_Source\PSoC4/cyfitter_cfg.c **** *   void
 388:Generated_Source\PSoC4/cyfitter_cfg.c **** *
 389:Generated_Source\PSoC4/cyfitter_cfg.c **** *******************************************************************************/
 390:Generated_Source\PSoC4/cyfitter_cfg.c **** void AMux_Low_Unset(uint8 channel)
 391:Generated_Source\PSoC4/cyfitter_cfg.c **** {
 602              		.loc 1 391 0
 603              		.cfi_startproc
 604              		@ args = 0, pretend = 0, frame = 8
 605              		@ frame_needed = 1, uses_anonymous_args = 0
 606 0000 80B5     		push	{r7, lr}
 607              		.cfi_def_cfa_offset 8
 608              		.cfi_offset 7, -8
 609              		.cfi_offset 14, -4
 610 0002 82B0     		sub	sp, sp, #8
 611              		.cfi_def_cfa_offset 16
 612 0004 00AF     		add	r7, sp, #0
 613              		.cfi_def_cfa_register 7
 614 0006 0200     		movs	r2, r0
 615 0008 FB1D     		adds	r3, r7, #7
 616 000a 1A70     		strb	r2, [r3]
 392:Generated_Source\PSoC4/cyfitter_cfg.c **** 	switch (channel) {
 617              		.loc 1 392 0
 618 000c FB1D     		adds	r3, r7, #7
 619 000e 1B78     		ldrb	r3, [r3]
 620 0010 012B     		cmp	r3, #1
 621 0012 00D0     		beq	.L40
 393:Generated_Source\PSoC4/cyfitter_cfg.c **** 		case 1u:
 394:Generated_Source\PSoC4/cyfitter_cfg.c **** 			CY_SET_REG32((void CYXDATA *)CYREG_CTBM_OA1_SW_CLEAR, (0x02u));
 395:Generated_Source\PSoC4/cyfitter_cfg.c **** 			break;
 396:Generated_Source\PSoC4/cyfitter_cfg.c **** 		default:
ARM GAS  C:\Users\Lars\AppData\Local\Temp\ccdMQiRg.s 			page 19


 397:Generated_Source\PSoC4/cyfitter_cfg.c **** 			break;
 622              		.loc 1 397 0
 623 0014 03E0     		b	.L41
 624              	.L40:
 394:Generated_Source\PSoC4/cyfitter_cfg.c **** 			break;
 625              		.loc 1 394 0
 626 0016 044B     		ldr	r3, .L42
 627 0018 0222     		movs	r2, #2
 628 001a 1A60     		str	r2, [r3]
 395:Generated_Source\PSoC4/cyfitter_cfg.c **** 		default:
 629              		.loc 1 395 0
 630 001c C046     		nop
 631              	.L41:
 398:Generated_Source\PSoC4/cyfitter_cfg.c **** 	}
 399:Generated_Source\PSoC4/cyfitter_cfg.c **** }
 632              		.loc 1 399 0
 633 001e C046     		nop
 634 0020 BD46     		mov	sp, r7
 635 0022 02B0     		add	sp, sp, #8
 636              		@ sp needed
 637 0024 80BD     		pop	{r7, pc}
 638              	.L43:
 639 0026 C046     		.align	2
 640              	.L42:
 641 0028 8C001040 		.word	1074790540
 642              		.cfi_endproc
 643              	.LFE42:
 644              		.size	AMux_Low_Unset, .-AMux_Low_Unset
 645              		.section	.psocinit
 646              		.align	2
 647              		.global	cyfitter_cfg
 648              		.code	16
 649              		.thumb_func
 650              		.type	cyfitter_cfg, %function
 651              	cyfitter_cfg:
 652              	.LFB43:
 400:Generated_Source\PSoC4/cyfitter_cfg.c **** 
 401:Generated_Source\PSoC4/cyfitter_cfg.c **** 
 402:Generated_Source\PSoC4/cyfitter_cfg.c **** 
 403:Generated_Source\PSoC4/cyfitter_cfg.c **** /*******************************************************************************
 404:Generated_Source\PSoC4/cyfitter_cfg.c **** * Function Name: cyfitter_cfg
 405:Generated_Source\PSoC4/cyfitter_cfg.c **** ********************************************************************************
 406:Generated_Source\PSoC4/cyfitter_cfg.c **** * Summary:
 407:Generated_Source\PSoC4/cyfitter_cfg.c **** *  This function is called by the start-up code for the selected device. It
 408:Generated_Source\PSoC4/cyfitter_cfg.c **** *  performs all of the necessary device configuration based on the design
 409:Generated_Source\PSoC4/cyfitter_cfg.c **** *  settings.  This includes settings from the Design Wide Resources (DWR) such
 410:Generated_Source\PSoC4/cyfitter_cfg.c **** *  as Clocks and Pins as well as any component configuration that is necessary.
 411:Generated_Source\PSoC4/cyfitter_cfg.c **** *
 412:Generated_Source\PSoC4/cyfitter_cfg.c **** * Parameters:
 413:Generated_Source\PSoC4/cyfitter_cfg.c **** *   void
 414:Generated_Source\PSoC4/cyfitter_cfg.c **** *
 415:Generated_Source\PSoC4/cyfitter_cfg.c **** * Return:
 416:Generated_Source\PSoC4/cyfitter_cfg.c **** *   void
 417:Generated_Source\PSoC4/cyfitter_cfg.c **** *
 418:Generated_Source\PSoC4/cyfitter_cfg.c **** *******************************************************************************/
 419:Generated_Source\PSoC4/cyfitter_cfg.c **** CY_CFG_SECTION
 420:Generated_Source\PSoC4/cyfitter_cfg.c **** void cyfitter_cfg(void)
ARM GAS  C:\Users\Lars\AppData\Local\Temp\ccdMQiRg.s 			page 20


 421:Generated_Source\PSoC4/cyfitter_cfg.c **** {
 653              		.loc 1 421 0
 654              		.cfi_startproc
 655              		@ args = 0, pretend = 0, frame = 8
 656              		@ frame_needed = 1, uses_anonymous_args = 0
 657 007c 80B5     		push	{r7, lr}
 658              		.cfi_def_cfa_offset 8
 659              		.cfi_offset 7, -8
 660              		.cfi_offset 14, -4
 661 007e 82B0     		sub	sp, sp, #8
 662              		.cfi_def_cfa_offset 16
 663 0080 00AF     		add	r7, sp, #0
 664              		.cfi_def_cfa_register 7
 422:Generated_Source\PSoC4/cyfitter_cfg.c **** 	/* Disable interrupts by default. Let user enable if/when they want. */
 423:Generated_Source\PSoC4/cyfitter_cfg.c **** 	CyGlobalIntDisable;
 665              		.loc 1 423 0
 666              		.syntax divided
 667              	@ 423 "Generated_Source\PSoC4\cyfitter_cfg.c" 1
 668 0082 72B6     		CPSID   i
 669              	@ 0 "" 2
 424:Generated_Source\PSoC4/cyfitter_cfg.c **** 
 425:Generated_Source\PSoC4/cyfitter_cfg.c **** 	/* Enable the clock in the interrupt controller for the routed interrupts */
 426:Generated_Source\PSoC4/cyfitter_cfg.c **** 	CY_SET_REG8((void *)CYREG_UDB_UDBIF_INT_CLK_CTL, 0x01u);
 670              		.loc 1 426 0
 671              		.thumb
 672              		.syntax unified
 673 0084 444B     		ldr	r3, .L47
 674 0086 0122     		movs	r2, #1
 675 0088 1A70     		strb	r2, [r3]
 676              	.LBB3:
 427:Generated_Source\PSoC4/cyfitter_cfg.c **** 	{
 428:Generated_Source\PSoC4/cyfitter_cfg.c **** 		static const uint32 CYCODE cy_cfg_addr_table[] = {
 429:Generated_Source\PSoC4/cyfitter_cfg.c **** 			0x400F3004u, /* Base address: 0x400F3000 Count: 4 */
 430:Generated_Source\PSoC4/cyfitter_cfg.c **** 			0x400F3102u, /* Base address: 0x400F3100 Count: 2 */
 431:Generated_Source\PSoC4/cyfitter_cfg.c **** 			0x400F3303u, /* Base address: 0x400F3300 Count: 3 */
 432:Generated_Source\PSoC4/cyfitter_cfg.c **** 			0x400F4006u, /* Base address: 0x400F4000 Count: 6 */
 433:Generated_Source\PSoC4/cyfitter_cfg.c **** 			0x400F4107u, /* Base address: 0x400F4100 Count: 7 */
 434:Generated_Source\PSoC4/cyfitter_cfg.c **** 			0x400F4202u, /* Base address: 0x400F4200 Count: 2 */
 435:Generated_Source\PSoC4/cyfitter_cfg.c **** 			0x400F4306u, /* Base address: 0x400F4300 Count: 6 */
 436:Generated_Source\PSoC4/cyfitter_cfg.c **** 		};
 437:Generated_Source\PSoC4/cyfitter_cfg.c **** 
 438:Generated_Source\PSoC4/cyfitter_cfg.c **** 		static const cy_cfg_addrvalue_t CYCODE cy_cfg_data_table[] = {
 439:Generated_Source\PSoC4/cyfitter_cfg.c **** 			{0x38u, 0x82u},
 440:Generated_Source\PSoC4/cyfitter_cfg.c **** 			{0x3Eu, 0x41u},
 441:Generated_Source\PSoC4/cyfitter_cfg.c **** 			{0x58u, 0x04u},
 442:Generated_Source\PSoC4/cyfitter_cfg.c **** 			{0x5Fu, 0x01u},
 443:Generated_Source\PSoC4/cyfitter_cfg.c **** 			{0x18u, 0x01u},
 444:Generated_Source\PSoC4/cyfitter_cfg.c **** 			{0x1Au, 0x80u},
 445:Generated_Source\PSoC4/cyfitter_cfg.c **** 			{0xAAu, 0x40u},
 446:Generated_Source\PSoC4/cyfitter_cfg.c **** 			{0xB4u, 0x01u},
 447:Generated_Source\PSoC4/cyfitter_cfg.c **** 			{0xE6u, 0x80u},
 448:Generated_Source\PSoC4/cyfitter_cfg.c **** 			{0x03u, 0x40u},
 449:Generated_Source\PSoC4/cyfitter_cfg.c **** 			{0x6Bu, 0x40u},
 450:Generated_Source\PSoC4/cyfitter_cfg.c **** 			{0x6Cu, 0x02u},
 451:Generated_Source\PSoC4/cyfitter_cfg.c **** 			{0xC0u, 0x10u},
 452:Generated_Source\PSoC4/cyfitter_cfg.c **** 			{0xDAu, 0x80u},
 453:Generated_Source\PSoC4/cyfitter_cfg.c **** 			{0xDCu, 0x20u},
ARM GAS  C:\Users\Lars\AppData\Local\Temp\ccdMQiRg.s 			page 21


 454:Generated_Source\PSoC4/cyfitter_cfg.c **** 			{0x62u, 0x20u},
 455:Generated_Source\PSoC4/cyfitter_cfg.c **** 			{0x88u, 0x02u},
 456:Generated_Source\PSoC4/cyfitter_cfg.c **** 			{0xA2u, 0x20u},
 457:Generated_Source\PSoC4/cyfitter_cfg.c **** 			{0xA4u, 0x02u},
 458:Generated_Source\PSoC4/cyfitter_cfg.c **** 			{0xAAu, 0x20u},
 459:Generated_Source\PSoC4/cyfitter_cfg.c **** 			{0xD8u, 0x40u},
 460:Generated_Source\PSoC4/cyfitter_cfg.c **** 			{0xEEu, 0x80u},
 461:Generated_Source\PSoC4/cyfitter_cfg.c **** 			{0x6Cu, 0x40u},
 462:Generated_Source\PSoC4/cyfitter_cfg.c **** 			{0xDCu, 0x02u},
 463:Generated_Source\PSoC4/cyfitter_cfg.c **** 			{0x0Eu, 0x01u},
 464:Generated_Source\PSoC4/cyfitter_cfg.c **** 			{0x8Au, 0x01u},
 465:Generated_Source\PSoC4/cyfitter_cfg.c **** 			{0xB4u, 0x40u},
 466:Generated_Source\PSoC4/cyfitter_cfg.c **** 			{0xC2u, 0x01u},
 467:Generated_Source\PSoC4/cyfitter_cfg.c **** 			{0xE6u, 0x01u},
 468:Generated_Source\PSoC4/cyfitter_cfg.c **** 			{0xECu, 0x08u},
 469:Generated_Source\PSoC4/cyfitter_cfg.c **** 		};
 470:Generated_Source\PSoC4/cyfitter_cfg.c **** 
 471:Generated_Source\PSoC4/cyfitter_cfg.c **** 
 472:Generated_Source\PSoC4/cyfitter_cfg.c **** 
 473:Generated_Source\PSoC4/cyfitter_cfg.c **** 		CYPACKED typedef struct {
 474:Generated_Source\PSoC4/cyfitter_cfg.c **** 			void CYFAR *address;
 475:Generated_Source\PSoC4/cyfitter_cfg.c **** 			uint16 size;
 476:Generated_Source\PSoC4/cyfitter_cfg.c **** 		} CYPACKED_ATTR cfg_memset_t;
 477:Generated_Source\PSoC4/cyfitter_cfg.c **** 
 478:Generated_Source\PSoC4/cyfitter_cfg.c **** 		static const cfg_memset_t CYCODE cfg_memset_list[] = {
 479:Generated_Source\PSoC4/cyfitter_cfg.c **** 			/* address, size */
 480:Generated_Source\PSoC4/cyfitter_cfg.c **** 			{(void CYFAR *)(CYDEV_UDB_P0_U0_BASE), 1024u},
 481:Generated_Source\PSoC4/cyfitter_cfg.c **** 			{(void CYFAR *)(CYDEV_UDB_DSI0_BASE), 1024u},
 482:Generated_Source\PSoC4/cyfitter_cfg.c **** 		};
 483:Generated_Source\PSoC4/cyfitter_cfg.c **** 
 484:Generated_Source\PSoC4/cyfitter_cfg.c **** 		uint8 CYDATA i;
 485:Generated_Source\PSoC4/cyfitter_cfg.c **** 
 486:Generated_Source\PSoC4/cyfitter_cfg.c **** 		/* Zero out critical memory blocks before beginning configuration */
 487:Generated_Source\PSoC4/cyfitter_cfg.c **** 		for (i = 0u; i < (sizeof(cfg_memset_list)/sizeof(cfg_memset_list[0])); i++)
 677              		.loc 1 487 0
 678 008a FB1D     		adds	r3, r7, #7
 679 008c 0022     		movs	r2, #0
 680 008e 1A70     		strb	r2, [r3]
 681 0090 22E0     		b	.L45
 682              	.L46:
 683              	.LBB4:
 488:Generated_Source\PSoC4/cyfitter_cfg.c **** 		{
 489:Generated_Source\PSoC4/cyfitter_cfg.c **** 			const cfg_memset_t CYCODE * CYDATA ms = &cfg_memset_list[i];
 684              		.loc 1 489 0 discriminator 3
 685 0092 FB1D     		adds	r3, r7, #7
 686 0094 1A78     		ldrb	r2, [r3]
 687 0096 1300     		movs	r3, r2
 688 0098 5B00     		lsls	r3, r3, #1
 689 009a 9B18     		adds	r3, r3, r2
 690 009c 5B00     		lsls	r3, r3, #1
 691 009e 3F4A     		ldr	r2, .L47+4
 692 00a0 9B18     		adds	r3, r3, r2
 693 00a2 3B60     		str	r3, [r7]
 490:Generated_Source\PSoC4/cyfitter_cfg.c **** 			CYMEMZERO(ms->address, (size_t)(uint32)(ms->size));
 694              		.loc 1 490 0 discriminator 3
 695 00a4 3B68     		ldr	r3, [r7]
 696 00a6 1A78     		ldrb	r2, [r3]
ARM GAS  C:\Users\Lars\AppData\Local\Temp\ccdMQiRg.s 			page 22


 697 00a8 5978     		ldrb	r1, [r3, #1]
 698 00aa 0902     		lsls	r1, r1, #8
 699 00ac 0A43     		orrs	r2, r1
 700 00ae 9978     		ldrb	r1, [r3, #2]
 701 00b0 0904     		lsls	r1, r1, #16
 702 00b2 0A43     		orrs	r2, r1
 703 00b4 DB78     		ldrb	r3, [r3, #3]
 704 00b6 1B06     		lsls	r3, r3, #24
 705 00b8 1343     		orrs	r3, r2
 706 00ba 1800     		movs	r0, r3
 707 00bc 3B68     		ldr	r3, [r7]
 708 00be 1A79     		ldrb	r2, [r3, #4]
 709 00c0 5B79     		ldrb	r3, [r3, #5]
 710 00c2 1B02     		lsls	r3, r3, #8
 711 00c4 1343     		orrs	r3, r2
 712 00c6 9BB2     		uxth	r3, r3
 713 00c8 1900     		movs	r1, r3
 714 00ca FFF7FEFF 		bl	CYMEMZERO
 715              	.LBE4:
 487:Generated_Source\PSoC4/cyfitter_cfg.c **** 		{
 716              		.loc 1 487 0 discriminator 3
 717 00ce FB1D     		adds	r3, r7, #7
 718 00d0 1A78     		ldrb	r2, [r3]
 719 00d2 FB1D     		adds	r3, r7, #7
 720 00d4 0132     		adds	r2, r2, #1
 721 00d6 1A70     		strb	r2, [r3]
 722              	.L45:
 487:Generated_Source\PSoC4/cyfitter_cfg.c **** 		{
 723              		.loc 1 487 0 is_stmt 0 discriminator 1
 724 00d8 FB1D     		adds	r3, r7, #7
 725 00da 1B78     		ldrb	r3, [r3]
 726 00dc 012B     		cmp	r3, #1
 727 00de D8D9     		bls	.L46
 491:Generated_Source\PSoC4/cyfitter_cfg.c **** 		}
 492:Generated_Source\PSoC4/cyfitter_cfg.c **** 
 493:Generated_Source\PSoC4/cyfitter_cfg.c **** 		cfg_write_bytes32(cy_cfg_addr_table, cy_cfg_data_table);
 728              		.loc 1 493 0 is_stmt 1
 729 00e0 2F4A     		ldr	r2, .L47+8
 730 00e2 304B     		ldr	r3, .L47+12
 731 00e4 1100     		movs	r1, r2
 732 00e6 1800     		movs	r0, r3
 733 00e8 FFF7FEFF 		bl	cfg_write_bytes32
 494:Generated_Source\PSoC4/cyfitter_cfg.c **** 
 495:Generated_Source\PSoC4/cyfitter_cfg.c **** 		/* HSIOM Starting address: CYDEV_HSIOM_BASE */
 496:Generated_Source\PSoC4/cyfitter_cfg.c **** 		CY_SET_REG32((void *)(CYDEV_HSIOM_BASE), 0xFFFF0000u);
 734              		.loc 1 496 0
 735 00ec 2E4B     		ldr	r3, .L47+16
 736 00ee 2F4A     		ldr	r2, .L47+20
 737 00f0 1A60     		str	r2, [r3]
 497:Generated_Source\PSoC4/cyfitter_cfg.c **** 		CY_SET_REG32((void *)(CYREG_HSIOM_PORT_SEL1), 0x60000000u);
 738              		.loc 1 497 0
 739 00f2 2F4B     		ldr	r3, .L47+24
 740 00f4 C022     		movs	r2, #192
 741 00f6 D205     		lsls	r2, r2, #23
 742 00f8 1A60     		str	r2, [r3]
 498:Generated_Source\PSoC4/cyfitter_cfg.c **** 		CY_SET_REG32((void *)(CYREG_HSIOM_PORT_SEL3), 0x0000EE00u);
 743              		.loc 1 498 0
ARM GAS  C:\Users\Lars\AppData\Local\Temp\ccdMQiRg.s 			page 23


 744 00fa 2E4B     		ldr	r3, .L47+28
 745 00fc EE22     		movs	r2, #238
 746 00fe 1202     		lsls	r2, r2, #8
 747 0100 1A60     		str	r2, [r3]
 499:Generated_Source\PSoC4/cyfitter_cfg.c **** 
 500:Generated_Source\PSoC4/cyfitter_cfg.c **** 		/* UDB_PA_0 Starting address: CYDEV_UDB_PA0_BASE */
 501:Generated_Source\PSoC4/cyfitter_cfg.c **** 		CY_SET_REG32((void *)(CYDEV_UDB_PA0_BASE), 0x00990000u);
 748              		.loc 1 501 0
 749 0102 2D4B     		ldr	r3, .L47+32
 750 0104 9922     		movs	r2, #153
 751 0106 1204     		lsls	r2, r2, #16
 752 0108 1A60     		str	r2, [r3]
 502:Generated_Source\PSoC4/cyfitter_cfg.c **** 
 503:Generated_Source\PSoC4/cyfitter_cfg.c **** 		/* UDB_PA_1 Starting address: CYDEV_UDB_PA1_BASE */
 504:Generated_Source\PSoC4/cyfitter_cfg.c **** 		CY_SET_REG32((void *)(CYDEV_UDB_PA1_BASE), 0x00990000u);
 753              		.loc 1 504 0
 754 010a 2C4B     		ldr	r3, .L47+36
 755 010c 9922     		movs	r2, #153
 756 010e 1204     		lsls	r2, r2, #16
 757 0110 1A60     		str	r2, [r3]
 505:Generated_Source\PSoC4/cyfitter_cfg.c **** 		CY_SET_REG32((void *)(CYREG_UDB_PA1_CFG8), 0x80000000u);
 758              		.loc 1 505 0
 759 0112 2B4B     		ldr	r3, .L47+40
 760 0114 8022     		movs	r2, #128
 761 0116 1206     		lsls	r2, r2, #24
 762 0118 1A60     		str	r2, [r3]
 506:Generated_Source\PSoC4/cyfitter_cfg.c **** 
 507:Generated_Source\PSoC4/cyfitter_cfg.c **** 		/* UDB_PA_2 Starting address: CYDEV_UDB_PA2_BASE */
 508:Generated_Source\PSoC4/cyfitter_cfg.c **** 		CY_SET_REG32((void *)(CYDEV_UDB_PA2_BASE), 0x00990000u);
 763              		.loc 1 508 0
 764 011a 2A4B     		ldr	r3, .L47+44
 765 011c 9922     		movs	r2, #153
 766 011e 1204     		lsls	r2, r2, #16
 767 0120 1A60     		str	r2, [r3]
 509:Generated_Source\PSoC4/cyfitter_cfg.c **** 
 510:Generated_Source\PSoC4/cyfitter_cfg.c **** 		/* UDB_PA_3 Starting address: CYDEV_UDB_PA3_BASE */
 511:Generated_Source\PSoC4/cyfitter_cfg.c **** 		CY_SET_REG32((void *)(CYDEV_UDB_PA3_BASE), 0x00990000u);
 768              		.loc 1 511 0
 769 0122 294B     		ldr	r3, .L47+48
 770 0124 9922     		movs	r2, #153
 771 0126 1204     		lsls	r2, r2, #16
 772 0128 1A60     		str	r2, [r3]
 512:Generated_Source\PSoC4/cyfitter_cfg.c **** 
 513:Generated_Source\PSoC4/cyfitter_cfg.c **** 		/* INT_SELECT Starting address: CYDEV_CPUSS_INTR_SELECT */
 514:Generated_Source\PSoC4/cyfitter_cfg.c **** 		CY_SET_REG32((void *)(CYREG_CPUSS_INTR_SELECT), 0x00000005u);
 773              		.loc 1 514 0
 774 012a 284B     		ldr	r3, .L47+52
 775 012c 0522     		movs	r2, #5
 776 012e 1A60     		str	r2, [r3]
 515:Generated_Source\PSoC4/cyfitter_cfg.c **** 
 516:Generated_Source\PSoC4/cyfitter_cfg.c **** 		/* INT_CONFIG Starting address: CYDEV_UDB_INT_CFG */
 517:Generated_Source\PSoC4/cyfitter_cfg.c **** 		CY_SET_REG32((void *)(CYREG_UDB_INT_CFG), 0x00000006u);
 777              		.loc 1 517 0
 778 0130 274B     		ldr	r3, .L47+56
 779 0132 0622     		movs	r2, #6
 780 0134 1A60     		str	r2, [r3]
 518:Generated_Source\PSoC4/cyfitter_cfg.c **** 
ARM GAS  C:\Users\Lars\AppData\Local\Temp\ccdMQiRg.s 			page 24


 519:Generated_Source\PSoC4/cyfitter_cfg.c **** 		/* Enable UDB array and digital routing */
 520:Generated_Source\PSoC4/cyfitter_cfg.c **** 		CY_SET_XTND_REG8((void *)CYREG_UDB_UDBIF_WAIT_CFG, (uint8)((CY_GET_XTND_REG8((void *)CYREG_UDB_UD
 781              		.loc 1 520 0
 782 0136 274A     		ldr	r2, .L47+60
 783 0138 264B     		ldr	r3, .L47+60
 784 013a 1B78     		ldrb	r3, [r3]
 785 013c DBB2     		uxtb	r3, r3
 786 013e 3C21     		movs	r1, #60
 787 0140 8B43     		bics	r3, r1
 788 0142 DBB2     		uxtb	r3, r3
 789 0144 1421     		movs	r1, #20
 790 0146 0B43     		orrs	r3, r1
 791 0148 DBB2     		uxtb	r3, r3
 792 014a 1370     		strb	r3, [r2]
 521:Generated_Source\PSoC4/cyfitter_cfg.c **** 		CY_SET_XTND_REG8((void *)CYREG_UDB_UDBIF_BANK_CTL, (uint8)(CY_GET_XTND_REG8((void *)CYREG_UDB_UDB
 793              		.loc 1 521 0
 794 014c 224A     		ldr	r2, .L47+64
 795 014e 224B     		ldr	r3, .L47+64
 796 0150 1B78     		ldrb	r3, [r3]
 797 0152 DBB2     		uxtb	r3, r3
 798 0154 1621     		movs	r1, #22
 799 0156 0B43     		orrs	r3, r1
 800 0158 DBB2     		uxtb	r3, r3
 801 015a 1370     		strb	r3, [r2]
 802              	.LBE3:
 522:Generated_Source\PSoC4/cyfitter_cfg.c **** 	}
 523:Generated_Source\PSoC4/cyfitter_cfg.c **** 
 524:Generated_Source\PSoC4/cyfitter_cfg.c **** 	/* Perform second pass device configuration. These items must be configured in specific order afte
 525:Generated_Source\PSoC4/cyfitter_cfg.c **** 	/* IOPINS0_0 Starting address: CYDEV_PRT0_BASE */
 526:Generated_Source\PSoC4/cyfitter_cfg.c **** 	CY_SET_REG32((void *)(CYDEV_PRT0_BASE), 0x00000020u);
 803              		.loc 1 526 0
 804 015c 1F4B     		ldr	r3, .L47+68
 805 015e 2022     		movs	r2, #32
 806 0160 1A60     		str	r2, [r3]
 527:Generated_Source\PSoC4/cyfitter_cfg.c **** 	CY_SET_REG32((void *)(CYREG_PRT0_PC), 0x00271001u);
 807              		.loc 1 527 0
 808 0162 1F4B     		ldr	r3, .L47+72
 809 0164 1F4A     		ldr	r2, .L47+76
 810 0166 1A60     		str	r2, [r3]
 528:Generated_Source\PSoC4/cyfitter_cfg.c **** 	CY_SET_REG32((void *)(CYREG_PRT0_PC2), 0x00000020u);
 811              		.loc 1 528 0
 812 0168 1F4B     		ldr	r3, .L47+80
 813 016a 2022     		movs	r2, #32
 814 016c 1A60     		str	r2, [r3]
 529:Generated_Source\PSoC4/cyfitter_cfg.c **** 
 530:Generated_Source\PSoC4/cyfitter_cfg.c **** 	/* IOPINS0_1 Starting address: CYDEV_PRT1_BASE */
 531:Generated_Source\PSoC4/cyfitter_cfg.c **** 	CY_SET_REG32((void *)(CYDEV_PRT1_BASE), 0x00000021u);
 815              		.loc 1 531 0
 816 016e 1F4B     		ldr	r3, .L47+84
 817 0170 2122     		movs	r2, #33
 818 0172 1A60     		str	r2, [r3]
 532:Generated_Source\PSoC4/cyfitter_cfg.c **** 	CY_SET_REG32((void *)(CYREG_PRT1_PC2), 0x000000A1u);
 819              		.loc 1 532 0
 820 0174 1E4B     		ldr	r3, .L47+88
 821 0176 A122     		movs	r2, #161
 822 0178 1A60     		str	r2, [r3]
 533:Generated_Source\PSoC4/cyfitter_cfg.c **** 
ARM GAS  C:\Users\Lars\AppData\Local\Temp\ccdMQiRg.s 			page 25


 534:Generated_Source\PSoC4/cyfitter_cfg.c **** 	/* IOPINS0_2 Starting address: CYDEV_PRT2_BASE */
 535:Generated_Source\PSoC4/cyfitter_cfg.c **** 	CY_SET_REG32((void *)(CYREG_PRT2_PC), 0x00000DB0u);
 823              		.loc 1 535 0
 824 017a 1E4B     		ldr	r3, .L47+92
 825 017c DB22     		movs	r2, #219
 826 017e 1201     		lsls	r2, r2, #4
 827 0180 1A60     		str	r2, [r3]
 536:Generated_Source\PSoC4/cyfitter_cfg.c **** 
 537:Generated_Source\PSoC4/cyfitter_cfg.c **** 	/* IOPINS0_3 Starting address: CYDEV_PRT3_BASE */
 538:Generated_Source\PSoC4/cyfitter_cfg.c **** 	CY_SET_REG32((void *)(CYREG_PRT3_PC), 0x00230D80u);
 828              		.loc 1 538 0
 829 0182 1D4B     		ldr	r3, .L47+96
 830 0184 1D4A     		ldr	r2, .L47+100
 831 0186 1A60     		str	r2, [r3]
 539:Generated_Source\PSoC4/cyfitter_cfg.c **** 
 540:Generated_Source\PSoC4/cyfitter_cfg.c **** 
 541:Generated_Source\PSoC4/cyfitter_cfg.c **** 	/* Setup clocks based on selections from Clock DWR */
 542:Generated_Source\PSoC4/cyfitter_cfg.c **** 	ClockSetup();
 832              		.loc 1 542 0
 833 0188 FFF73AFF 		bl	ClockSetup
 543:Generated_Source\PSoC4/cyfitter_cfg.c **** 
 544:Generated_Source\PSoC4/cyfitter_cfg.c **** 	/* Perform basic analog initialization to defaults */
 545:Generated_Source\PSoC4/cyfitter_cfg.c **** 	AnalogSetDefault();
 834              		.loc 1 545 0
 835 018c FFF7FEFF 		bl	AnalogSetDefault
 546:Generated_Source\PSoC4/cyfitter_cfg.c **** 
 547:Generated_Source\PSoC4/cyfitter_cfg.c **** }
 836              		.loc 1 547 0
 837 0190 C046     		nop
 838 0192 BD46     		mov	sp, r7
 839 0194 02B0     		add	sp, sp, #8
 840              		@ sp needed
 841 0196 80BD     		pop	{r7, pc}
 842              	.L48:
 843              		.align	2
 844              	.L47:
 845 0198 1C700F40 		.word	1074753564
 846 019c 00000000 		.word	cfg_memset_list.5858
 847 01a0 28000000 		.word	cy_cfg_data_table.5853
 848 01a4 0C000000 		.word	cy_cfg_addr_table.5852
 849 01a8 00000140 		.word	1073807360
 850 01ac 0000FFFF 		.word	-65536
 851 01b0 04000140 		.word	1073807364
 852 01b4 0C000140 		.word	1073807372
 853 01b8 00500F40 		.word	1074745344
 854 01bc 10500F40 		.word	1074745360
 855 01c0 18500F40 		.word	1074745368
 856 01c4 20500F40 		.word	1074745376
 857 01c8 30500F40 		.word	1074745392
 858 01cc 20000040 		.word	1073741856
 859 01d0 00800F40 		.word	1074757632
 860 01d4 01700F40 		.word	1074753537
 861 01d8 00700F40 		.word	1074753536
 862 01dc 00000440 		.word	1074003968
 863 01e0 08000440 		.word	1074003976
 864 01e4 01102700 		.word	2560001
 865 01e8 18000440 		.word	1074003992
ARM GAS  C:\Users\Lars\AppData\Local\Temp\ccdMQiRg.s 			page 26


 866 01ec 00010440 		.word	1074004224
 867 01f0 18010440 		.word	1074004248
 868 01f4 08020440 		.word	1074004488
 869 01f8 08030440 		.word	1074004744
 870 01fc 800D2300 		.word	2297216
 871              		.cfi_endproc
 872              	.LFE43:
 873              		.size	cyfitter_cfg, .-cyfitter_cfg
 874              		.section	.rodata
 875              		.align	2
 876              		.type	cfg_memset_list.5858, %object
 877              		.size	cfg_memset_list.5858, 12
 878              	cfg_memset_list.5858:
 879 0000 00300F40 		.word	1074737152
 880 0004 0004     		.short	1024
 881 0006 00400F40 		.4byte	1074741248
 882 000a 0004     		.short	1024
 883              		.align	2
 884              		.type	cy_cfg_addr_table.5852, %object
 885              		.size	cy_cfg_addr_table.5852, 28
 886              	cy_cfg_addr_table.5852:
 887 000c 04300F40 		.word	1074737156
 888 0010 02310F40 		.word	1074737410
 889 0014 03330F40 		.word	1074737923
 890 0018 06400F40 		.word	1074741254
 891 001c 07410F40 		.word	1074741511
 892 0020 02420F40 		.word	1074741762
 893 0024 06430F40 		.word	1074742022
 894              		.align	2
 895              		.type	cy_cfg_data_table.5853, %object
 896              		.size	cy_cfg_data_table.5853, 60
 897              	cy_cfg_data_table.5853:
 898 0028 38       		.byte	56
 899 0029 82       		.byte	-126
 900 002a 3E       		.byte	62
 901 002b 41       		.byte	65
 902 002c 58       		.byte	88
 903 002d 04       		.byte	4
 904 002e 5F       		.byte	95
 905 002f 01       		.byte	1
 906 0030 18       		.byte	24
 907 0031 01       		.byte	1
 908 0032 1A       		.byte	26
 909 0033 80       		.byte	-128
 910 0034 AA       		.byte	-86
 911 0035 40       		.byte	64
 912 0036 B4       		.byte	-76
 913 0037 01       		.byte	1
 914 0038 E6       		.byte	-26
 915 0039 80       		.byte	-128
 916 003a 03       		.byte	3
 917 003b 40       		.byte	64
 918 003c 6B       		.byte	107
 919 003d 40       		.byte	64
 920 003e 6C       		.byte	108
 921 003f 02       		.byte	2
 922 0040 C0       		.byte	-64
ARM GAS  C:\Users\Lars\AppData\Local\Temp\ccdMQiRg.s 			page 27


 923 0041 10       		.byte	16
 924 0042 DA       		.byte	-38
 925 0043 80       		.byte	-128
 926 0044 DC       		.byte	-36
 927 0045 20       		.byte	32
 928 0046 62       		.byte	98
 929 0047 20       		.byte	32
 930 0048 88       		.byte	-120
 931 0049 02       		.byte	2
 932 004a A2       		.byte	-94
 933 004b 20       		.byte	32
 934 004c A4       		.byte	-92
 935 004d 02       		.byte	2
 936 004e AA       		.byte	-86
 937 004f 20       		.byte	32
 938 0050 D8       		.byte	-40
 939 0051 40       		.byte	64
 940 0052 EE       		.byte	-18
 941 0053 80       		.byte	-128
 942 0054 6C       		.byte	108
 943 0055 40       		.byte	64
 944 0056 DC       		.byte	-36
 945 0057 02       		.byte	2
 946 0058 0E       		.byte	14
 947 0059 01       		.byte	1
 948 005a 8A       		.byte	-118
 949 005b 01       		.byte	1
 950 005c B4       		.byte	-76
 951 005d 40       		.byte	64
 952 005e C2       		.byte	-62
 953 005f 01       		.byte	1
 954 0060 E6       		.byte	-26
 955 0061 01       		.byte	1
 956 0062 EC       		.byte	-20
 957 0063 08       		.byte	8
 958              		.text
 959              	.Letext0:
 960              		.file 2 "c:\\program files (x86)\\cypress\\psoc creator\\4.2\\psoc creator\\import\\gnu\\arm\\5.4.
 961              		.file 3 "Generated_Source\\PSoC4\\cytypes.h"