ARM GAS  C:\Users\Lars\AppData\Local\Temp\ccw2IOHf.s 			page 1


   1              		.syntax unified
   2              		.cpu cortex-m0
   3              		.fpu softvfp
   4              		.eabi_attribute 20, 1
   5              		.eabi_attribute 21, 1
   6              		.eabi_attribute 23, 3
   7              		.eabi_attribute 24, 1
   8              		.eabi_attribute 25, 1
   9              		.eabi_attribute 26, 1
  10              		.eabi_attribute 30, 6
  11              		.eabi_attribute 34, 0
  12              		.eabi_attribute 18, 4
  13              		.thumb
  14              		.syntax unified
  15              		.file	"diodeMeasurement.c"
  16              		.text
  17              	.Ltext0:
  18              		.cfi_sections	.debug_frame
  19              		.global	ADCOffset
  20              		.bss
  21              		.align	1
  22              		.type	ADCOffset, %object
  23              		.size	ADCOffset, 2
  24              	ADCOffset:
  25 0000 0000     		.space	2
  26              		.section	.text.getSystemOffset,"ax",%progbits
  27              		.align	2
  28              		.global	getSystemOffset
  29              		.code	16
  30              		.thumb_func
  31              		.type	getSystemOffset, %function
  32              	getSystemOffset:
  33              	.LFB32:
  34              		.file 1 "diodeMeasurement.c"
   1:diodeMeasurement.c **** /*******************************************************************************
   2:diodeMeasurement.c **** * File Name: diodeMeasurement.c
   3:diodeMeasurement.c **** * Version 1.0
   4:diodeMeasurement.c **** *
   5:diodeMeasurement.c **** * Description:
   6:diodeMeasurement.c **** *
   7:diodeMeasurement.c **** * Note: none
   8:diodeMeasurement.c **** *
   9:diodeMeasurement.c **** ********************************************************************************
  10:diodeMeasurement.c **** * Copyright 2008-2013, Cypress Semiconductor Corporation.  All rights reserved.
  11:diodeMeasurement.c **** * You may use this file only in accordance with the license, terms, conditions,
  12:diodeMeasurement.c **** * disclaimers, and limitations in the end user license agreement accompanying
  13:diodeMeasurement.c **** * the software package with which this file was provided.
  14:diodeMeasurement.c **** ********************************************************************************/
  15:diodeMeasurement.c **** 
  16:diodeMeasurement.c **** /* Include all generated header files  */
  17:diodeMeasurement.c **** #include <device.h>  
  18:diodeMeasurement.c ****  /* Included for using logarithm function */
  19:diodeMeasurement.c **** #include <math.h>   
  20:diodeMeasurement.c ****  /* Included the single diode header file */
  21:diodeMeasurement.c **** #include <diodeMeasurement.h>
  22:diodeMeasurement.c **** 
  23:diodeMeasurement.c **** /* Opamps and ADC offset at delta Vbe measurement */
ARM GAS  C:\Users\Lars\AppData\Local\Temp\ccw2IOHf.s 			page 2


  24:diodeMeasurement.c **** volatile int16 ADCOffset = 0; 
  25:diodeMeasurement.c **** extern volatile int32 SPI_Temp_Reg;
  26:diodeMeasurement.c **** extern volatile int8 SPI_Status_Reg;
  27:diodeMeasurement.c **** 
  28:diodeMeasurement.c **** /********************************************************************************** 
  29:diodeMeasurement.c **** * Function Name: getSystemOffset
  30:diodeMeasurement.c **** ***********************************************************************************
  31:diodeMeasurement.c **** *
  32:diodeMeasurement.c **** * Summary:
  33:diodeMeasurement.c **** *  Get the total offset caused by opamps and ADC 
  34:diodeMeasurement.c **** * Parameters:  
  35:diodeMeasurement.c **** * number: the averaging number for noise reduction
  36:diodeMeasurement.c **** *
  37:diodeMeasurement.c **** * Return: 
  38:diodeMeasurement.c **** * offset caused by both ADC and opamps are returned in this function as: "Adc_offset"
  39:diodeMeasurement.c **** *************************************************************************************/
  40:diodeMeasurement.c **** 
  41:diodeMeasurement.c **** int32 getSystemOffset(int8 number)
  42:diodeMeasurement.c **** {
  35              		.loc 1 42 0
  36              		.cfi_startproc
  37              		@ args = 0, pretend = 0, frame = 16
  38              		@ frame_needed = 1, uses_anonymous_args = 0
  39 0000 80B5     		push	{r7, lr}
  40              		.cfi_def_cfa_offset 8
  41              		.cfi_offset 7, -8
  42              		.cfi_offset 14, -4
  43 0002 84B0     		sub	sp, sp, #16
  44              		.cfi_def_cfa_offset 24
  45 0004 00AF     		add	r7, sp, #0
  46              		.cfi_def_cfa_register 7
  47 0006 0200     		movs	r2, r0
  48 0008 FB1D     		adds	r3, r7, #7
  49 000a 1A70     		strb	r2, [r3]
  43:diodeMeasurement.c **** 	uint8 loop = 0;	
  50              		.loc 1 43 0
  51 000c 0F23     		movs	r3, #15
  52 000e FB18     		adds	r3, r7, r3
  53 0010 0022     		movs	r2, #0
  54 0012 1A70     		strb	r2, [r3]
  44:diodeMeasurement.c **** 	int32 Offset = 0;
  55              		.loc 1 44 0
  56 0014 0023     		movs	r3, #0
  57 0016 BB60     		str	r3, [r7, #8]
  45:diodeMeasurement.c **** 	 /*Set the ADC multiplexer to short OAMPS to get ADC + Amplifier Offset */
  46:diodeMeasurement.c **** 	AMux_High_Select(AMUX_HIGH_OFFSET);	
  58              		.loc 1 46 0
  59 0018 0020     		movs	r0, #0
  60 001a FFF7FEFF 		bl	AMux_High_Select
  47:diodeMeasurement.c **** 	AMux_Low_Select (AMUX_LOW_OFFSET); 
  61              		.loc 1 47 0
  62 001e 0020     		movs	r0, #0
  63 0020 FFF7FEFF 		bl	AMux_Low_Select
  48:diodeMeasurement.c ****     
  49:diodeMeasurement.c **** 	/*add some delay to makes sure the last conversion is complete*/
  50:diodeMeasurement.c **** 	CyDelayUs(30); 
  64              		.loc 1 50 0
ARM GAS  C:\Users\Lars\AppData\Local\Temp\ccw2IOHf.s 			page 3


  65 0024 1E20     		movs	r0, #30
  66 0026 FFF7FEFF 		bl	CyDelayUs
  51:diodeMeasurement.c **** 	/*Clear the bit for that last reading that was started before you turned off the ADC*/
  52:diodeMeasurement.c **** 	ADC_SAR_SAR_INTR_REG = ADC_SAR_EOS_MASK; 
  67              		.loc 1 52 0
  68 002a 154B     		ldr	r3, .L5
  69 002c 0122     		movs	r2, #1
  70 002e 1A60     		str	r2, [r3]
  53:diodeMeasurement.c **** 
  54:diodeMeasurement.c **** 	for(loop = 0; loop < number; loop++)
  71              		.loc 1 54 0
  72 0030 0F23     		movs	r3, #15
  73 0032 FB18     		adds	r3, r7, r3
  74 0034 0022     		movs	r2, #0
  75 0036 1A70     		strb	r2, [r3]
  76 0038 15E0     		b	.L2
  77              	.L3:
  55:diodeMeasurement.c ****     {    
  56:diodeMeasurement.c ****         ADC_SAR_StartConvert();
  78              		.loc 1 56 0 discriminator 3
  79 003a FFF7FEFF 		bl	ADC_SAR_StartConvert
  57:diodeMeasurement.c ****         ADC_SAR_IsEndConversion(ADC_SAR_WAIT_FOR_RESULT);
  80              		.loc 1 57 0 discriminator 3
  81 003e 0220     		movs	r0, #2
  82 0040 FFF7FEFF 		bl	ADC_SAR_IsEndConversion
  58:diodeMeasurement.c ****         Offset = Offset +  ADC_SAR_GetResult16(0); 
  83              		.loc 1 58 0 discriminator 3
  84 0044 0020     		movs	r0, #0
  85 0046 FFF7FEFF 		bl	ADC_SAR_GetResult16
  86 004a 0300     		movs	r3, r0
  87 004c 1A00     		movs	r2, r3
  88 004e BB68     		ldr	r3, [r7, #8]
  89 0050 9B18     		adds	r3, r3, r2
  90 0052 BB60     		str	r3, [r7, #8]
  59:diodeMeasurement.c **** 		ADC_SAR_StopConvert();
  91              		.loc 1 59 0 discriminator 3
  92 0054 FFF7FEFF 		bl	ADC_SAR_StopConvert
  54:diodeMeasurement.c ****     {    
  93              		.loc 1 54 0 discriminator 3
  94 0058 0F23     		movs	r3, #15
  95 005a FB18     		adds	r3, r7, r3
  96 005c 1A78     		ldrb	r2, [r3]
  97 005e 0F23     		movs	r3, #15
  98 0060 FB18     		adds	r3, r7, r3
  99 0062 0132     		adds	r2, r2, #1
 100 0064 1A70     		strb	r2, [r3]
 101              	.L2:
  54:diodeMeasurement.c ****     {    
 102              		.loc 1 54 0 is_stmt 0 discriminator 1
 103 0066 0F23     		movs	r3, #15
 104 0068 FB18     		adds	r3, r7, r3
 105 006a 1A78     		ldrb	r2, [r3]
 106 006c FB1D     		adds	r3, r7, #7
 107 006e 1B78     		ldrb	r3, [r3]
 108 0070 5BB2     		sxtb	r3, r3
 109 0072 9A42     		cmp	r2, r3
 110 0074 E1DB     		blt	.L3
ARM GAS  C:\Users\Lars\AppData\Local\Temp\ccw2IOHf.s 			page 4


  60:diodeMeasurement.c ****     } 
  61:diodeMeasurement.c **** 	
  62:diodeMeasurement.c **** 	return (Offset);
 111              		.loc 1 62 0 is_stmt 1
 112 0076 BB68     		ldr	r3, [r7, #8]
  63:diodeMeasurement.c **** }
 113              		.loc 1 63 0
 114 0078 1800     		movs	r0, r3
 115 007a BD46     		mov	sp, r7
 116 007c 04B0     		add	sp, sp, #16
 117              		@ sp needed
 118 007e 80BD     		pop	{r7, pc}
 119              	.L6:
 120              		.align	2
 121              	.L5:
 122 0080 10021A40 		.word	1075446288
 123              		.cfi_endproc
 124              	.LFE32:
 125              		.size	getSystemOffset, .-getSystemOffset
 126              		.section	.text.initializeDiodeMeasurement,"ax",%progbits
 127              		.align	2
 128              		.global	initializeDiodeMeasurement
 129              		.code	16
 130              		.thumb_func
 131              		.type	initializeDiodeMeasurement, %function
 132              	initializeDiodeMeasurement:
 133              	.LFB33:
  64:diodeMeasurement.c **** 
  65:diodeMeasurement.c **** /*************************************************************************************** 
  66:diodeMeasurement.c **** * Function Name: initializeDiodeMeasurement
  67:diodeMeasurement.c **** ****************************************************************************************
  68:diodeMeasurement.c **** *
  69:diodeMeasurement.c **** * Summary:
  70:diodeMeasurement.c **** *  Initializes the components required for temperature measurement and also
  71:diodeMeasurement.c **** *  and finds the system offset  
  72:diodeMeasurement.c **** *
  73:diodeMeasurement.c **** * Parameters:  
  74:diodeMeasurement.c **** *  None
  75:diodeMeasurement.c **** *
  76:diodeMeasurement.c **** * Return: 
  77:diodeMeasurement.c **** *  None
  78:diodeMeasurement.c **** *
  79:diodeMeasurement.c **** *
  80:diodeMeasurement.c **** ******************************************************************************************/
  81:diodeMeasurement.c **** void  initializeDiodeMeasurement()
  82:diodeMeasurement.c **** {
 134              		.loc 1 82 0
 135              		.cfi_startproc
 136              		@ args = 0, pretend = 0, frame = 0
 137              		@ frame_needed = 1, uses_anonymous_args = 0
 138 0000 80B5     		push	{r7, lr}
 139              		.cfi_def_cfa_offset 8
 140              		.cfi_offset 7, -8
 141              		.cfi_offset 14, -4
 142 0002 00AF     		add	r7, sp, #0
 143              		.cfi_def_cfa_register 7
  83:diodeMeasurement.c ****     /* Start the components */
ARM GAS  C:\Users\Lars\AppData\Local\Temp\ccw2IOHf.s 			page 5


  84:diodeMeasurement.c ****     ADC_SAR_Start();
 144              		.loc 1 84 0
 145 0004 FFF7FEFF 		bl	ADC_SAR_Start
  85:diodeMeasurement.c ****     IDAC_Start();
 146              		.loc 1 85 0
 147 0008 FFF7FEFF 		bl	IDAC_Start
  86:diodeMeasurement.c **** 	Opamp_1_Start();
 148              		.loc 1 86 0
 149 000c FFF7FEFF 		bl	Opamp_1_Start
  87:diodeMeasurement.c **** 	Opamp_2_Start();
 150              		.loc 1 87 0
 151 0010 FFF7FEFF 		bl	Opamp_2_Start
  88:diodeMeasurement.c **** 	AMux_High_Start();
 152              		.loc 1 88 0
 153 0014 FFF7FEFF 		bl	AMux_High_Start
  89:diodeMeasurement.c ****     AMux_Low_Start(); 
 154              		.loc 1 89 0
 155 0018 FFF7FEFF 		bl	AMux_Low_Start
  90:diodeMeasurement.c **** 	
  91:diodeMeasurement.c **** 	/* Initial IDAC Calibration */
  92:diodeMeasurement.c ****     ADCOffset = getSystemOffset(NUM_OF_SAMPLES_CALIB);
 156              		.loc 1 92 0
 157 001c 4020     		movs	r0, #64
 158 001e FFF7FEFF 		bl	getSystemOffset
 159 0022 0300     		movs	r3, r0
 160 0024 1AB2     		sxth	r2, r3
 161 0026 064B     		ldr	r3, .L8
 162 0028 1A80     		strh	r2, [r3]
  93:diodeMeasurement.c ****    __SPI_SET_STATUS_BIT(STATUS_CALIBRATION_DONE);
 163              		.loc 1 93 0
 164 002a 064B     		ldr	r3, .L8+4
 165 002c 1B78     		ldrb	r3, [r3]
 166 002e 5BB2     		sxtb	r3, r3
 167 0030 0422     		movs	r2, #4
 168 0032 1343     		orrs	r3, r2
 169 0034 5AB2     		sxtb	r2, r3
 170 0036 034B     		ldr	r3, .L8+4
 171 0038 1A70     		strb	r2, [r3]
  94:diodeMeasurement.c ****     
  95:diodeMeasurement.c **** }
 172              		.loc 1 95 0
 173 003a C046     		nop
 174 003c BD46     		mov	sp, r7
 175              		@ sp needed
 176 003e 80BD     		pop	{r7, pc}
 177              	.L9:
 178              		.align	2
 179              	.L8:
 180 0040 00000000 		.word	ADCOffset
 181 0044 00000000 		.word	SPI_Status_Reg
 182              		.cfi_endproc
 183              	.LFE33:
 184              		.size	initializeDiodeMeasurement, .-initializeDiodeMeasurement
 185              		.global	__aeabi_f2iz
 186              		.global	__aeabi_fmul
 187              		.section	.text.convertVoltageToTemperature,"ax",%progbits
 188              		.align	2
ARM GAS  C:\Users\Lars\AppData\Local\Temp\ccw2IOHf.s 			page 6


 189              		.global	convertVoltageToTemperature
 190              		.code	16
 191              		.thumb_func
 192              		.type	convertVoltageToTemperature, %function
 193              	convertVoltageToTemperature:
 194              	.LFB34:
  96:diodeMeasurement.c **** 
  97:diodeMeasurement.c **** 
  98:diodeMeasurement.c **** /******************************************************************************************* 
  99:diodeMeasurement.c **** * Function Name: convertVoltageToTemperature
 100:diodeMeasurement.c **** ********************************************************************************************
 101:diodeMeasurement.c **** *
 102:diodeMeasurement.c **** * Summary:
 103:diodeMeasurement.c **** *  Converts the voltage measured with the ADC to a corresponding temperature with a lookuptable
 104:diodeMeasurement.c **** *
 105:diodeMeasurement.c **** * Parameters:  
 106:diodeMeasurement.c **** *  float - voltage 
 107:diodeMeasurement.c **** *
 108:diodeMeasurement.c **** * Return: 
 109:diodeMeasurement.c **** *  float - diode temperature
 110:diodeMeasurement.c **** *
 111:diodeMeasurement.c **** *********************************************************************************************/
 112:diodeMeasurement.c **** float convertVoltageToTemperature(float32 voltage)
 113:diodeMeasurement.c **** {
 195              		.loc 1 113 0
 196              		.cfi_startproc
 197              		@ args = 0, pretend = 0, frame = 16
 198              		@ frame_needed = 1, uses_anonymous_args = 0
 199 0000 90B5     		push	{r4, r7, lr}
 200              		.cfi_def_cfa_offset 12
 201              		.cfi_offset 4, -12
 202              		.cfi_offset 7, -8
 203              		.cfi_offset 14, -4
 204 0002 85B0     		sub	sp, sp, #20
 205              		.cfi_def_cfa_offset 32
 206 0004 00AF     		add	r7, sp, #0
 207              		.cfi_def_cfa_register 7
 208 0006 7860     		str	r0, [r7, #4]
 114:diodeMeasurement.c ****   
 115:diodeMeasurement.c ****     /*store the integer part of the diode temperature*/
 116:diodeMeasurement.c **** 	uint16 intr; 
 117:diodeMeasurement.c ****     uint8 intrHigh;
 118:diodeMeasurement.c ****     uint8 intrLow;
 119:diodeMeasurement.c **** 	/*store the fractional part of the diode temperature*/
 120:diodeMeasurement.c **** 	uint16 frac; 
 121:diodeMeasurement.c ****     uint8 fracHigh;
 122:diodeMeasurement.c ****     uint8 fracLow;
 123:diodeMeasurement.c ****     
 124:diodeMeasurement.c ****     intr = (int16)voltage;
 209              		.loc 1 124 0
 210 0008 7868     		ldr	r0, [r7, #4]
 211 000a FFF7FEFF 		bl	__aeabi_f2iz
 212 000e 0300     		movs	r3, r0
 213 0010 1AB2     		sxth	r2, r3
 214 0012 0E23     		movs	r3, #14
 215 0014 FB18     		adds	r3, r7, r3
 216 0016 1A80     		strh	r2, [r3]
ARM GAS  C:\Users\Lars\AppData\Local\Temp\ccw2IOHf.s 			page 7


 125:diodeMeasurement.c **** 	frac = (int16)(voltage*1000)-intr*1000;
 217              		.loc 1 125 0
 218 0018 2249     		ldr	r1, .L12
 219 001a 7868     		ldr	r0, [r7, #4]
 220 001c FFF7FEFF 		bl	__aeabi_fmul
 221 0020 031C     		adds	r3, r0, #0
 222 0022 181C     		adds	r0, r3, #0
 223 0024 FFF7FEFF 		bl	__aeabi_f2iz
 224 0028 0300     		movs	r3, r0
 225 002a 1BB2     		sxth	r3, r3
 226 002c 99B2     		uxth	r1, r3
 227 002e 0E23     		movs	r3, #14
 228 0030 FB18     		adds	r3, r7, r3
 229 0032 1B88     		ldrh	r3, [r3]
 230 0034 1C4A     		ldr	r2, .L12+4
 231 0036 5343     		muls	r3, r2
 232 0038 9AB2     		uxth	r2, r3
 233 003a 0C23     		movs	r3, #12
 234 003c FB18     		adds	r3, r7, r3
 235 003e 8A18     		adds	r2, r1, r2
 236 0040 1A80     		strh	r2, [r3]
 126:diodeMeasurement.c ****     
 127:diodeMeasurement.c ****     intrHigh = ((intr & (0xFF << 8)) >> 8);
 237              		.loc 1 127 0
 238 0042 0E23     		movs	r3, #14
 239 0044 FB18     		adds	r3, r7, r3
 240 0046 1B88     		ldrh	r3, [r3]
 241 0048 1B0A     		lsrs	r3, r3, #8
 242 004a 9AB2     		uxth	r2, r3
 243 004c 0B23     		movs	r3, #11
 244 004e FB18     		adds	r3, r7, r3
 245 0050 1A70     		strb	r2, [r3]
 128:diodeMeasurement.c ****     intrLow = (intr & 0xFF);
 246              		.loc 1 128 0
 247 0052 0A23     		movs	r3, #10
 248 0054 FB18     		adds	r3, r7, r3
 249 0056 0E22     		movs	r2, #14
 250 0058 BA18     		adds	r2, r7, r2
 251 005a 1288     		ldrh	r2, [r2]
 252 005c 1A70     		strb	r2, [r3]
 129:diodeMeasurement.c ****     fracHigh = ((frac & (0xFF << 8)) >> 8);
 253              		.loc 1 129 0
 254 005e 0C23     		movs	r3, #12
 255 0060 FB18     		adds	r3, r7, r3
 256 0062 1B88     		ldrh	r3, [r3]
 257 0064 1B0A     		lsrs	r3, r3, #8
 258 0066 9AB2     		uxth	r2, r3
 259 0068 0923     		movs	r3, #9
 260 006a FB18     		adds	r3, r7, r3
 261 006c 1A70     		strb	r2, [r3]
 130:diodeMeasurement.c ****     fracLow = (frac & 0xFF);
 262              		.loc 1 130 0
 263 006e 0823     		movs	r3, #8
 264 0070 FB18     		adds	r3, r7, r3
 265 0072 0C22     		movs	r2, #12
 266 0074 BA18     		adds	r2, r7, r2
 267 0076 1288     		ldrh	r2, [r2]
ARM GAS  C:\Users\Lars\AppData\Local\Temp\ccw2IOHf.s 			page 8


 268 0078 1A70     		strb	r2, [r3]
 131:diodeMeasurement.c ****     
 132:diodeMeasurement.c ****     setSPITempReg(intrHigh, intrLow, fracHigh, fracLow);
 269              		.loc 1 132 0
 270 007a 0823     		movs	r3, #8
 271 007c FB18     		adds	r3, r7, r3
 272 007e 1C78     		ldrb	r4, [r3]
 273 0080 0923     		movs	r3, #9
 274 0082 FB18     		adds	r3, r7, r3
 275 0084 1A78     		ldrb	r2, [r3]
 276 0086 0A23     		movs	r3, #10
 277 0088 FB18     		adds	r3, r7, r3
 278 008a 1978     		ldrb	r1, [r3]
 279 008c 0B23     		movs	r3, #11
 280 008e FB18     		adds	r3, r7, r3
 281 0090 1878     		ldrb	r0, [r3]
 282 0092 2300     		movs	r3, r4
 283 0094 FFF7FEFF 		bl	setSPITempReg
 133:diodeMeasurement.c ****     
 134:diodeMeasurement.c ****     return voltage; //No Conversion so far
 284              		.loc 1 134 0
 285 0098 7B68     		ldr	r3, [r7, #4]
 135:diodeMeasurement.c **** }
 286              		.loc 1 135 0
 287 009a 181C     		adds	r0, r3, #0
 288 009c BD46     		mov	sp, r7
 289 009e 05B0     		add	sp, sp, #20
 290              		@ sp needed
 291 00a0 90BD     		pop	{r4, r7, pc}
 292              	.L13:
 293 00a2 C046     		.align	2
 294              	.L12:
 295 00a4 00007A44 		.word	1148846080
 296 00a8 18FCFFFF 		.word	-1000
 297              		.cfi_endproc
 298              	.LFE34:
 299              		.size	convertVoltageToTemperature, .-convertVoltageToTemperature
 300              		.global	__aeabi_i2f
 301              		.global	__aeabi_fdiv
 302              		.section	.text.getDiodeTemperature,"ax",%progbits
 303              		.align	2
 304              		.global	getDiodeTemperature
 305              		.code	16
 306              		.thumb_func
 307              		.type	getDiodeTemperature, %function
 308              	getDiodeTemperature:
 309              	.LFB35:
 136:diodeMeasurement.c **** 
 137:diodeMeasurement.c **** 
 138:diodeMeasurement.c **** 
 139:diodeMeasurement.c **** 
 140:diodeMeasurement.c **** /******************************************************************************************* 
 141:diodeMeasurement.c **** * Function Name: getDiodeTemperature
 142:diodeMeasurement.c **** ********************************************************************************************
 143:diodeMeasurement.c **** *
 144:diodeMeasurement.c **** * Summary:
 145:diodeMeasurement.c **** *  Returns the temperature of the transistor diode and the Vbe voltage measured
ARM GAS  C:\Users\Lars\AppData\Local\Temp\ccw2IOHf.s 			page 9


 146:diodeMeasurement.c **** *
 147:diodeMeasurement.c **** * Parameters:  
 148:diodeMeasurement.c **** *  None
 149:diodeMeasurement.c **** *
 150:diodeMeasurement.c **** * Return: 
 151:diodeMeasurement.c **** *  float - diode temperature
 152:diodeMeasurement.c **** *
 153:diodeMeasurement.c **** *********************************************************************************************/
 154:diodeMeasurement.c **** float getDiodeTemperature(uint8 chan)
 155:diodeMeasurement.c **** {
 310              		.loc 1 155 0
 311              		.cfi_startproc
 312              		@ args = 0, pretend = 0, frame = 24
 313              		@ frame_needed = 1, uses_anonymous_args = 0
 314 0000 80B5     		push	{r7, lr}
 315              		.cfi_def_cfa_offset 8
 316              		.cfi_offset 7, -8
 317              		.cfi_offset 14, -4
 318 0002 86B0     		sub	sp, sp, #24
 319              		.cfi_def_cfa_offset 32
 320 0004 00AF     		add	r7, sp, #0
 321              		.cfi_def_cfa_register 7
 322 0006 0200     		movs	r2, r0
 323 0008 FB1D     		adds	r3, r7, #7
 324 000a 1A70     		strb	r2, [r3]
 156:diodeMeasurement.c ****     uint8 loop;
 157:diodeMeasurement.c ****     int32 Vf_SUM = 0;
 325              		.loc 1 157 0
 326 000c 0023     		movs	r3, #0
 327 000e 3B61     		str	r3, [r7, #16]
 158:diodeMeasurement.c ****     float32 Vf_Single;
 159:diodeMeasurement.c ****     float32 diode_temperature;
 160:diodeMeasurement.c **** 
 161:diodeMeasurement.c ****   
 162:diodeMeasurement.c ****     /*Set the ADC multiplexer to measure Voltage over Body Diode*/
 163:diodeMeasurement.c ****     AMux_High_Select (AMUX_HIGH_DIODE);
 328              		.loc 1 163 0
 329 0010 0120     		movs	r0, #1
 330 0012 FFF7FEFF 		bl	AMux_High_Select
 164:diodeMeasurement.c ****     AMux_Low_Select (AMUX_LOW_DIODE);
 331              		.loc 1 164 0
 332 0016 0120     		movs	r0, #1
 333 0018 FFF7FEFF 		bl	AMux_Low_Select
 165:diodeMeasurement.c ****     
 166:diodeMeasurement.c ****     /*Set the current multiplexer to measure Mosfet 1 of DUT*/
 167:diodeMeasurement.c **** 	setMultiplexerChan(chan);
 334              		.loc 1 167 0
 335 001c FB1D     		adds	r3, r7, #7
 336 001e 1B78     		ldrb	r3, [r3]
 337 0020 1800     		movs	r0, r3
 338 0022 FFF7FEFF 		bl	setMultiplexerChan
 168:diodeMeasurement.c ****     turnOnSink();
 339              		.loc 1 168 0
 340 0026 FFF7FEFF 		bl	turnOnSink
 169:diodeMeasurement.c ****     __SPI_SET_STATUS_BIT(STATUS_CURRENT_SOURCE_ON);
 341              		.loc 1 169 0
 342 002a 2E4B     		ldr	r3, .L18
ARM GAS  C:\Users\Lars\AppData\Local\Temp\ccw2IOHf.s 			page 10


 343 002c 1B78     		ldrb	r3, [r3]
 344 002e 5BB2     		sxtb	r3, r3
 345 0030 0222     		movs	r2, #2
 346 0032 1343     		orrs	r3, r2
 347 0034 5AB2     		sxtb	r2, r3
 348 0036 2B4B     		ldr	r3, .L18
 349 0038 1A70     		strb	r2, [r3]
 170:diodeMeasurement.c **** 	/*add some delay to makes sure the diode voltage is stable*/
 171:diodeMeasurement.c **** 	CyDelayUs(100); 
 350              		.loc 1 171 0
 351 003a 6420     		movs	r0, #100
 352 003c FFF7FEFF 		bl	CyDelayUs
 172:diodeMeasurement.c **** 	/*Clear the bit for that last reading that was started before you turned off the ADC*/
 173:diodeMeasurement.c **** 	ADC_SAR_SAR_INTR_REG = ADC_SAR_EOS_MASK; 
 353              		.loc 1 173 0
 354 0040 294B     		ldr	r3, .L18+4
 355 0042 0122     		movs	r2, #1
 356 0044 1A60     		str	r2, [r3]
 174:diodeMeasurement.c **** 
 175:diodeMeasurement.c **** 	/* Measure delta Vbe at I2. Software loop to reduce noise in measurement */
 176:diodeMeasurement.c ****     for(loop = 0; loop < NUM_OF_SAMPLES_VF; loop++)
 357              		.loc 1 176 0
 358 0046 1723     		movs	r3, #23
 359 0048 FB18     		adds	r3, r7, r3
 360 004a 0022     		movs	r2, #0
 361 004c 1A70     		strb	r2, [r3]
 362 004e 15E0     		b	.L15
 363              	.L16:
 177:diodeMeasurement.c ****     {
 178:diodeMeasurement.c ****         ADC_SAR_StartConvert();
 364              		.loc 1 178 0 discriminator 3
 365 0050 FFF7FEFF 		bl	ADC_SAR_StartConvert
 179:diodeMeasurement.c ****         ADC_SAR_IsEndConversion(ADC_SAR_WAIT_FOR_RESULT); 
 366              		.loc 1 179 0 discriminator 3
 367 0054 0220     		movs	r0, #2
 368 0056 FFF7FEFF 		bl	ADC_SAR_IsEndConversion
 180:diodeMeasurement.c ****         Vf_SUM = Vf_SUM +  ADC_SAR_GetResult16(0);
 369              		.loc 1 180 0 discriminator 3
 370 005a 0020     		movs	r0, #0
 371 005c FFF7FEFF 		bl	ADC_SAR_GetResult16
 372 0060 0300     		movs	r3, r0
 373 0062 1A00     		movs	r2, r3
 374 0064 3B69     		ldr	r3, [r7, #16]
 375 0066 9B18     		adds	r3, r3, r2
 376 0068 3B61     		str	r3, [r7, #16]
 181:diodeMeasurement.c **** 		ADC_SAR_StopConvert();
 377              		.loc 1 181 0 discriminator 3
 378 006a FFF7FEFF 		bl	ADC_SAR_StopConvert
 176:diodeMeasurement.c ****     {
 379              		.loc 1 176 0 discriminator 3
 380 006e 1723     		movs	r3, #23
 381 0070 FB18     		adds	r3, r7, r3
 382 0072 1A78     		ldrb	r2, [r3]
 383 0074 1723     		movs	r3, #23
 384 0076 FB18     		adds	r3, r7, r3
 385 0078 0132     		adds	r2, r2, #1
 386 007a 1A70     		strb	r2, [r3]
ARM GAS  C:\Users\Lars\AppData\Local\Temp\ccw2IOHf.s 			page 11


 387              	.L15:
 176:diodeMeasurement.c ****     {
 388              		.loc 1 176 0 is_stmt 0 discriminator 1
 389 007c 1723     		movs	r3, #23
 390 007e FB18     		adds	r3, r7, r3
 391 0080 1B78     		ldrb	r3, [r3]
 392 0082 3F2B     		cmp	r3, #63
 393 0084 E4D9     		bls	.L16
 182:diodeMeasurement.c **** 	}
 183:diodeMeasurement.c **** 	/*Get the delta Vbe after offset calibration*/
 184:diodeMeasurement.c **** 	Vf_SUM = Vf_SUM  - ADCOffset;
 394              		.loc 1 184 0 is_stmt 1
 395 0086 194B     		ldr	r3, .L18+8
 396 0088 1B88     		ldrh	r3, [r3]
 397 008a 1BB2     		sxth	r3, r3
 398 008c 1A00     		movs	r2, r3
 399 008e 3B69     		ldr	r3, [r7, #16]
 400 0090 9B1A     		subs	r3, r3, r2
 401 0092 3B61     		str	r3, [r7, #16]
 185:diodeMeasurement.c **** 
 186:diodeMeasurement.c **** 	turnOffSink();
 402              		.loc 1 186 0
 403 0094 FFF7FEFF 		bl	turnOffSink
 187:diodeMeasurement.c ****     __SPI_CLEAR_STATUS_BIT(STATUS_CURRENT_SOURCE_ON);
 404              		.loc 1 187 0
 405 0098 124B     		ldr	r3, .L18
 406 009a 1B78     		ldrb	r3, [r3]
 407 009c 5BB2     		sxtb	r3, r3
 408 009e 0222     		movs	r2, #2
 409 00a0 9343     		bics	r3, r2
 410 00a2 5AB2     		sxtb	r2, r3
 411 00a4 0F4B     		ldr	r3, .L18
 412 00a6 1A70     		strb	r2, [r3]
 188:diodeMeasurement.c ****     
 189:diodeMeasurement.c **** 	/* Take the different in Vbe and average it per the software loop cycles above */
 190:diodeMeasurement.c ****     Vf_Single = ((float32)(Vf_SUM)) / ((float32)(NUM_OF_SAMPLES_VF));
 413              		.loc 1 190 0
 414 00a8 3869     		ldr	r0, [r7, #16]
 415 00aa FFF7FEFF 		bl	__aeabi_i2f
 416 00ae 031C     		adds	r3, r0, #0
 417 00b0 8521     		movs	r1, #133
 418 00b2 C905     		lsls	r1, r1, #23
 419 00b4 181C     		adds	r0, r3, #0
 420 00b6 FFF7FEFF 		bl	__aeabi_fdiv
 421 00ba 031C     		adds	r3, r0, #0
 422 00bc FB60     		str	r3, [r7, #12]
 191:diodeMeasurement.c **** 	
 192:diodeMeasurement.c **** 	/* Temperature in degree Centigrade */
 193:diodeMeasurement.c **** 	diode_temperature = convertVoltageToTemperature(Vf_Single);
 423              		.loc 1 193 0
 424 00be FB68     		ldr	r3, [r7, #12]
 425 00c0 181C     		adds	r0, r3, #0
 426 00c2 FFF7FEFF 		bl	convertVoltageToTemperature
 427 00c6 031C     		adds	r3, r0, #0
 428 00c8 BB60     		str	r3, [r7, #8]
 194:diodeMeasurement.c ****     __SPI_SET_STATUS_BIT(STATUS_CONVERSION_DONE);
 429              		.loc 1 194 0
ARM GAS  C:\Users\Lars\AppData\Local\Temp\ccw2IOHf.s 			page 12


 430 00ca 064B     		ldr	r3, .L18
 431 00cc 1B78     		ldrb	r3, [r3]
 432 00ce 5BB2     		sxtb	r3, r3
 433 00d0 0122     		movs	r2, #1
 434 00d2 1343     		orrs	r3, r2
 435 00d4 5AB2     		sxtb	r2, r3
 436 00d6 034B     		ldr	r3, .L18
 437 00d8 1A70     		strb	r2, [r3]
 195:diodeMeasurement.c **** 	return(diode_temperature);
 438              		.loc 1 195 0
 439 00da BB68     		ldr	r3, [r7, #8]
 196:diodeMeasurement.c **** }
 440              		.loc 1 196 0
 441 00dc 181C     		adds	r0, r3, #0
 442 00de BD46     		mov	sp, r7
 443 00e0 06B0     		add	sp, sp, #24
 444              		@ sp needed
 445 00e2 80BD     		pop	{r7, pc}
 446              	.L19:
 447              		.align	2
 448              	.L18:
 449 00e4 00000000 		.word	SPI_Status_Reg
 450 00e8 10021A40 		.word	1075446288
 451 00ec 00000000 		.word	ADCOffset
 452              		.cfi_endproc
 453              	.LFE35:
 454              		.size	getDiodeTemperature, .-getDiodeTemperature
 455              		.text
 456              	.Letext0:
 457              		.file 2 "Generated_Source\\PSoC4/cytypes.h"