ARM GAS  C:\Users\Lars\AppData\Local\Temp\ccGZDN8v.s 			page 1


   1              		.syntax unified
   2              		.cpu cortex-m0
   3              		.fpu softvfp
   4              		.eabi_attribute 20, 1
   5              		.eabi_attribute 21, 1
   6              		.eabi_attribute 23, 3
   7              		.eabi_attribute 24, 1
   8              		.eabi_attribute 25, 1
   9              		.eabi_attribute 26, 1
  10              		.eabi_attribute 30, 6
  11              		.eabi_attribute 34, 0
  12              		.eabi_attribute 18, 4
  13              		.thumb
  14              		.syntax unified
  15              		.file	"ISR_TurnOff_Sink.c"
  16              		.text
  17              	.Ltext0:
  18              		.cfi_sections	.debug_frame
  19              		.section	.text.ISR_TurnOff_Sink_Start,"ax",%progbits
  20              		.align	2
  21              		.global	ISR_TurnOff_Sink_Start
  22              		.code	16
  23              		.thumb_func
  24              		.type	ISR_TurnOff_Sink_Start, %function
  25              	ISR_TurnOff_Sink_Start:
  26              	.LFB32:
  27              		.file 1 "Generated_Source\\PSoC4\\ISR_TurnOff_Sink.c"
   1:Generated_Source\PSoC4/ISR_TurnOff_Sink.c **** /*******************************************************************************
   2:Generated_Source\PSoC4/ISR_TurnOff_Sink.c **** * File Name: ISR_TurnOff_Sink.c  
   3:Generated_Source\PSoC4/ISR_TurnOff_Sink.c **** * Version 1.70
   4:Generated_Source\PSoC4/ISR_TurnOff_Sink.c **** *
   5:Generated_Source\PSoC4/ISR_TurnOff_Sink.c **** *  Description:
   6:Generated_Source\PSoC4/ISR_TurnOff_Sink.c **** *   API for controlling the state of an interrupt.
   7:Generated_Source\PSoC4/ISR_TurnOff_Sink.c **** *
   8:Generated_Source\PSoC4/ISR_TurnOff_Sink.c **** *
   9:Generated_Source\PSoC4/ISR_TurnOff_Sink.c **** *  Note:
  10:Generated_Source\PSoC4/ISR_TurnOff_Sink.c **** *
  11:Generated_Source\PSoC4/ISR_TurnOff_Sink.c **** ********************************************************************************
  12:Generated_Source\PSoC4/ISR_TurnOff_Sink.c **** * Copyright 2008-2015, Cypress Semiconductor Corporation.  All rights reserved.
  13:Generated_Source\PSoC4/ISR_TurnOff_Sink.c **** * You may use this file only in accordance with the license, terms, conditions, 
  14:Generated_Source\PSoC4/ISR_TurnOff_Sink.c **** * disclaimers, and limitations in the end user license agreement accompanying 
  15:Generated_Source\PSoC4/ISR_TurnOff_Sink.c **** * the software package with which this file was provided.
  16:Generated_Source\PSoC4/ISR_TurnOff_Sink.c **** *******************************************************************************/
  17:Generated_Source\PSoC4/ISR_TurnOff_Sink.c **** 
  18:Generated_Source\PSoC4/ISR_TurnOff_Sink.c **** 
  19:Generated_Source\PSoC4/ISR_TurnOff_Sink.c **** #include <cydevice_trm.h>
  20:Generated_Source\PSoC4/ISR_TurnOff_Sink.c **** #include <CyLib.h>
  21:Generated_Source\PSoC4/ISR_TurnOff_Sink.c **** #include <ISR_TurnOff_Sink.h>
  22:Generated_Source\PSoC4/ISR_TurnOff_Sink.c **** #include "cyapicallbacks.h"
  23:Generated_Source\PSoC4/ISR_TurnOff_Sink.c **** 
  24:Generated_Source\PSoC4/ISR_TurnOff_Sink.c **** #if !defined(ISR_TurnOff_Sink__REMOVED) /* Check for removal by optimization */
  25:Generated_Source\PSoC4/ISR_TurnOff_Sink.c **** 
  26:Generated_Source\PSoC4/ISR_TurnOff_Sink.c **** /*******************************************************************************
  27:Generated_Source\PSoC4/ISR_TurnOff_Sink.c **** *  Place your includes, defines and code here 
  28:Generated_Source\PSoC4/ISR_TurnOff_Sink.c **** ********************************************************************************/
  29:Generated_Source\PSoC4/ISR_TurnOff_Sink.c **** /* `#START ISR_TurnOff_Sink_intc` */
  30:Generated_Source\PSoC4/ISR_TurnOff_Sink.c **** 
ARM GAS  C:\Users\Lars\AppData\Local\Temp\ccGZDN8v.s 			page 2


  31:Generated_Source\PSoC4/ISR_TurnOff_Sink.c **** /* `#END` */
  32:Generated_Source\PSoC4/ISR_TurnOff_Sink.c **** 
  33:Generated_Source\PSoC4/ISR_TurnOff_Sink.c **** extern cyisraddress CyRamVectors[CYINT_IRQ_BASE + CY_NUM_INTERRUPTS];
  34:Generated_Source\PSoC4/ISR_TurnOff_Sink.c **** 
  35:Generated_Source\PSoC4/ISR_TurnOff_Sink.c **** /* Declared in startup, used to set unused interrupts to. */
  36:Generated_Source\PSoC4/ISR_TurnOff_Sink.c **** CY_ISR_PROTO(IntDefaultHandler);
  37:Generated_Source\PSoC4/ISR_TurnOff_Sink.c **** 
  38:Generated_Source\PSoC4/ISR_TurnOff_Sink.c **** 
  39:Generated_Source\PSoC4/ISR_TurnOff_Sink.c **** /*******************************************************************************
  40:Generated_Source\PSoC4/ISR_TurnOff_Sink.c **** * Function Name: ISR_TurnOff_Sink_Start
  41:Generated_Source\PSoC4/ISR_TurnOff_Sink.c **** ********************************************************************************
  42:Generated_Source\PSoC4/ISR_TurnOff_Sink.c **** *
  43:Generated_Source\PSoC4/ISR_TurnOff_Sink.c **** * Summary:
  44:Generated_Source\PSoC4/ISR_TurnOff_Sink.c **** *  Set up the interrupt and enable it. This function disables the interrupt, 
  45:Generated_Source\PSoC4/ISR_TurnOff_Sink.c **** *  sets the default interrupt vector, sets the priority from the value in the
  46:Generated_Source\PSoC4/ISR_TurnOff_Sink.c **** *  Design Wide Resources Interrupt Editor, then enables the interrupt to the 
  47:Generated_Source\PSoC4/ISR_TurnOff_Sink.c **** *  interrupt controller.
  48:Generated_Source\PSoC4/ISR_TurnOff_Sink.c **** *
  49:Generated_Source\PSoC4/ISR_TurnOff_Sink.c **** * Parameters:  
  50:Generated_Source\PSoC4/ISR_TurnOff_Sink.c **** *   None
  51:Generated_Source\PSoC4/ISR_TurnOff_Sink.c **** *
  52:Generated_Source\PSoC4/ISR_TurnOff_Sink.c **** * Return:
  53:Generated_Source\PSoC4/ISR_TurnOff_Sink.c **** *   None
  54:Generated_Source\PSoC4/ISR_TurnOff_Sink.c **** *
  55:Generated_Source\PSoC4/ISR_TurnOff_Sink.c **** *******************************************************************************/
  56:Generated_Source\PSoC4/ISR_TurnOff_Sink.c **** void ISR_TurnOff_Sink_Start(void)
  57:Generated_Source\PSoC4/ISR_TurnOff_Sink.c **** {
  28              		.loc 1 57 0
  29              		.cfi_startproc
  30              		@ args = 0, pretend = 0, frame = 0
  31              		@ frame_needed = 1, uses_anonymous_args = 0
  32 0000 80B5     		push	{r7, lr}
  33              		.cfi_def_cfa_offset 8
  34              		.cfi_offset 7, -8
  35              		.cfi_offset 14, -4
  36 0002 00AF     		add	r7, sp, #0
  37              		.cfi_def_cfa_register 7
  58:Generated_Source\PSoC4/ISR_TurnOff_Sink.c ****     /* For all we know the interrupt is active. */
  59:Generated_Source\PSoC4/ISR_TurnOff_Sink.c ****     ISR_TurnOff_Sink_Disable();
  38              		.loc 1 59 0
  39 0004 FFF7FEFF 		bl	ISR_TurnOff_Sink_Disable
  60:Generated_Source\PSoC4/ISR_TurnOff_Sink.c **** 
  61:Generated_Source\PSoC4/ISR_TurnOff_Sink.c ****     /* Set the ISR to point to the ISR_TurnOff_Sink Interrupt. */
  62:Generated_Source\PSoC4/ISR_TurnOff_Sink.c ****     ISR_TurnOff_Sink_SetVector(&ISR_TurnOff_Sink_Interrupt);
  40              		.loc 1 62 0
  41 0008 054B     		ldr	r3, .L2
  42 000a 1800     		movs	r0, r3
  43 000c FFF7FEFF 		bl	ISR_TurnOff_Sink_SetVector
  63:Generated_Source\PSoC4/ISR_TurnOff_Sink.c **** 
  64:Generated_Source\PSoC4/ISR_TurnOff_Sink.c ****     /* Set the priority. */
  65:Generated_Source\PSoC4/ISR_TurnOff_Sink.c ****     ISR_TurnOff_Sink_SetPriority((uint8)ISR_TurnOff_Sink_INTC_PRIOR_NUMBER);
  44              		.loc 1 65 0
  45 0010 0320     		movs	r0, #3
  46 0012 FFF7FEFF 		bl	ISR_TurnOff_Sink_SetPriority
  66:Generated_Source\PSoC4/ISR_TurnOff_Sink.c **** 
  67:Generated_Source\PSoC4/ISR_TurnOff_Sink.c ****     /* Enable it. */
  68:Generated_Source\PSoC4/ISR_TurnOff_Sink.c ****     ISR_TurnOff_Sink_Enable();
ARM GAS  C:\Users\Lars\AppData\Local\Temp\ccGZDN8v.s 			page 3


  47              		.loc 1 68 0
  48 0016 FFF7FEFF 		bl	ISR_TurnOff_Sink_Enable
  69:Generated_Source\PSoC4/ISR_TurnOff_Sink.c **** }
  49              		.loc 1 69 0
  50 001a C046     		nop
  51 001c BD46     		mov	sp, r7
  52              		@ sp needed
  53 001e 80BD     		pop	{r7, pc}
  54              	.L3:
  55              		.align	2
  56              	.L2:
  57 0020 00000000 		.word	ISR_TurnOff_Sink_Interrupt
  58              		.cfi_endproc
  59              	.LFE32:
  60              		.size	ISR_TurnOff_Sink_Start, .-ISR_TurnOff_Sink_Start
  61              		.section	.text.ISR_TurnOff_Sink_StartEx,"ax",%progbits
  62              		.align	2
  63              		.global	ISR_TurnOff_Sink_StartEx
  64              		.code	16
  65              		.thumb_func
  66              		.type	ISR_TurnOff_Sink_StartEx, %function
  67              	ISR_TurnOff_Sink_StartEx:
  68              	.LFB33:
  70:Generated_Source\PSoC4/ISR_TurnOff_Sink.c **** 
  71:Generated_Source\PSoC4/ISR_TurnOff_Sink.c **** 
  72:Generated_Source\PSoC4/ISR_TurnOff_Sink.c **** /*******************************************************************************
  73:Generated_Source\PSoC4/ISR_TurnOff_Sink.c **** * Function Name: ISR_TurnOff_Sink_StartEx
  74:Generated_Source\PSoC4/ISR_TurnOff_Sink.c **** ********************************************************************************
  75:Generated_Source\PSoC4/ISR_TurnOff_Sink.c **** *
  76:Generated_Source\PSoC4/ISR_TurnOff_Sink.c **** * Summary:
  77:Generated_Source\PSoC4/ISR_TurnOff_Sink.c **** *  Sets up the interrupt and enables it. This function disables the interrupt,
  78:Generated_Source\PSoC4/ISR_TurnOff_Sink.c **** *  sets the interrupt vector based on the address passed in, sets the priority 
  79:Generated_Source\PSoC4/ISR_TurnOff_Sink.c **** *  from the value in the Design Wide Resources Interrupt Editor, then enables 
  80:Generated_Source\PSoC4/ISR_TurnOff_Sink.c **** *  the interrupt to the interrupt controller.
  81:Generated_Source\PSoC4/ISR_TurnOff_Sink.c **** *  
  82:Generated_Source\PSoC4/ISR_TurnOff_Sink.c **** *  When defining ISR functions, the CY_ISR and CY_ISR_PROTO macros should be 
  83:Generated_Source\PSoC4/ISR_TurnOff_Sink.c **** *  used to provide consistent definition across compilers:
  84:Generated_Source\PSoC4/ISR_TurnOff_Sink.c **** *  
  85:Generated_Source\PSoC4/ISR_TurnOff_Sink.c **** *  Function definition example:
  86:Generated_Source\PSoC4/ISR_TurnOff_Sink.c **** *   CY_ISR(MyISR)
  87:Generated_Source\PSoC4/ISR_TurnOff_Sink.c **** *   {
  88:Generated_Source\PSoC4/ISR_TurnOff_Sink.c **** *   }
  89:Generated_Source\PSoC4/ISR_TurnOff_Sink.c **** *   Function prototype example:
  90:Generated_Source\PSoC4/ISR_TurnOff_Sink.c **** *   CY_ISR_PROTO(MyISR);
  91:Generated_Source\PSoC4/ISR_TurnOff_Sink.c **** *
  92:Generated_Source\PSoC4/ISR_TurnOff_Sink.c **** * Parameters:  
  93:Generated_Source\PSoC4/ISR_TurnOff_Sink.c **** *   address: Address of the ISR to set in the interrupt vector table.
  94:Generated_Source\PSoC4/ISR_TurnOff_Sink.c **** *
  95:Generated_Source\PSoC4/ISR_TurnOff_Sink.c **** * Return:
  96:Generated_Source\PSoC4/ISR_TurnOff_Sink.c **** *   None
  97:Generated_Source\PSoC4/ISR_TurnOff_Sink.c **** *
  98:Generated_Source\PSoC4/ISR_TurnOff_Sink.c **** *******************************************************************************/
  99:Generated_Source\PSoC4/ISR_TurnOff_Sink.c **** void ISR_TurnOff_Sink_StartEx(cyisraddress address)
 100:Generated_Source\PSoC4/ISR_TurnOff_Sink.c **** {
  69              		.loc 1 100 0
  70              		.cfi_startproc
  71              		@ args = 0, pretend = 0, frame = 8
ARM GAS  C:\Users\Lars\AppData\Local\Temp\ccGZDN8v.s 			page 4


  72              		@ frame_needed = 1, uses_anonymous_args = 0
  73 0000 80B5     		push	{r7, lr}
  74              		.cfi_def_cfa_offset 8
  75              		.cfi_offset 7, -8
  76              		.cfi_offset 14, -4
  77 0002 82B0     		sub	sp, sp, #8
  78              		.cfi_def_cfa_offset 16
  79 0004 00AF     		add	r7, sp, #0
  80              		.cfi_def_cfa_register 7
  81 0006 7860     		str	r0, [r7, #4]
 101:Generated_Source\PSoC4/ISR_TurnOff_Sink.c ****     /* For all we know the interrupt is active. */
 102:Generated_Source\PSoC4/ISR_TurnOff_Sink.c ****     ISR_TurnOff_Sink_Disable();
  82              		.loc 1 102 0
  83 0008 FFF7FEFF 		bl	ISR_TurnOff_Sink_Disable
 103:Generated_Source\PSoC4/ISR_TurnOff_Sink.c **** 
 104:Generated_Source\PSoC4/ISR_TurnOff_Sink.c ****     /* Set the ISR to point to the ISR_TurnOff_Sink Interrupt. */
 105:Generated_Source\PSoC4/ISR_TurnOff_Sink.c ****     ISR_TurnOff_Sink_SetVector(address);
  84              		.loc 1 105 0
  85 000c 7B68     		ldr	r3, [r7, #4]
  86 000e 1800     		movs	r0, r3
  87 0010 FFF7FEFF 		bl	ISR_TurnOff_Sink_SetVector
 106:Generated_Source\PSoC4/ISR_TurnOff_Sink.c **** 
 107:Generated_Source\PSoC4/ISR_TurnOff_Sink.c ****     /* Set the priority. */
 108:Generated_Source\PSoC4/ISR_TurnOff_Sink.c ****     ISR_TurnOff_Sink_SetPriority((uint8)ISR_TurnOff_Sink_INTC_PRIOR_NUMBER);
  88              		.loc 1 108 0
  89 0014 0320     		movs	r0, #3
  90 0016 FFF7FEFF 		bl	ISR_TurnOff_Sink_SetPriority
 109:Generated_Source\PSoC4/ISR_TurnOff_Sink.c **** 
 110:Generated_Source\PSoC4/ISR_TurnOff_Sink.c ****     /* Enable it. */
 111:Generated_Source\PSoC4/ISR_TurnOff_Sink.c ****     ISR_TurnOff_Sink_Enable();
  91              		.loc 1 111 0
  92 001a FFF7FEFF 		bl	ISR_TurnOff_Sink_Enable
 112:Generated_Source\PSoC4/ISR_TurnOff_Sink.c **** }
  93              		.loc 1 112 0
  94 001e C046     		nop
  95 0020 BD46     		mov	sp, r7
  96 0022 02B0     		add	sp, sp, #8
  97              		@ sp needed
  98 0024 80BD     		pop	{r7, pc}
  99              		.cfi_endproc
 100              	.LFE33:
 101              		.size	ISR_TurnOff_Sink_StartEx, .-ISR_TurnOff_Sink_StartEx
 102 0026 C046     		.section	.text.ISR_TurnOff_Sink_Stop,"ax",%progbits
 103              		.align	2
 104              		.global	ISR_TurnOff_Sink_Stop
 105              		.code	16
 106              		.thumb_func
 107              		.type	ISR_TurnOff_Sink_Stop, %function
 108              	ISR_TurnOff_Sink_Stop:
 109              	.LFB34:
 113:Generated_Source\PSoC4/ISR_TurnOff_Sink.c **** 
 114:Generated_Source\PSoC4/ISR_TurnOff_Sink.c **** 
 115:Generated_Source\PSoC4/ISR_TurnOff_Sink.c **** /*******************************************************************************
 116:Generated_Source\PSoC4/ISR_TurnOff_Sink.c **** * Function Name: ISR_TurnOff_Sink_Stop
 117:Generated_Source\PSoC4/ISR_TurnOff_Sink.c **** ********************************************************************************
 118:Generated_Source\PSoC4/ISR_TurnOff_Sink.c **** *
 119:Generated_Source\PSoC4/ISR_TurnOff_Sink.c **** * Summary:
ARM GAS  C:\Users\Lars\AppData\Local\Temp\ccGZDN8v.s 			page 5


 120:Generated_Source\PSoC4/ISR_TurnOff_Sink.c **** *   Disables and removes the interrupt.
 121:Generated_Source\PSoC4/ISR_TurnOff_Sink.c **** *
 122:Generated_Source\PSoC4/ISR_TurnOff_Sink.c **** * Parameters:  
 123:Generated_Source\PSoC4/ISR_TurnOff_Sink.c **** *   None
 124:Generated_Source\PSoC4/ISR_TurnOff_Sink.c **** *
 125:Generated_Source\PSoC4/ISR_TurnOff_Sink.c **** * Return:
 126:Generated_Source\PSoC4/ISR_TurnOff_Sink.c **** *   None
 127:Generated_Source\PSoC4/ISR_TurnOff_Sink.c **** *
 128:Generated_Source\PSoC4/ISR_TurnOff_Sink.c **** *******************************************************************************/
 129:Generated_Source\PSoC4/ISR_TurnOff_Sink.c **** void ISR_TurnOff_Sink_Stop(void)
 130:Generated_Source\PSoC4/ISR_TurnOff_Sink.c **** {
 110              		.loc 1 130 0
 111              		.cfi_startproc
 112              		@ args = 0, pretend = 0, frame = 0
 113              		@ frame_needed = 1, uses_anonymous_args = 0
 114 0000 80B5     		push	{r7, lr}
 115              		.cfi_def_cfa_offset 8
 116              		.cfi_offset 7, -8
 117              		.cfi_offset 14, -4
 118 0002 00AF     		add	r7, sp, #0
 119              		.cfi_def_cfa_register 7
 131:Generated_Source\PSoC4/ISR_TurnOff_Sink.c ****     /* Disable this interrupt. */
 132:Generated_Source\PSoC4/ISR_TurnOff_Sink.c ****     ISR_TurnOff_Sink_Disable();
 120              		.loc 1 132 0
 121 0004 FFF7FEFF 		bl	ISR_TurnOff_Sink_Disable
 133:Generated_Source\PSoC4/ISR_TurnOff_Sink.c **** 
 134:Generated_Source\PSoC4/ISR_TurnOff_Sink.c ****     /* Set the ISR to point to the passive one. */
 135:Generated_Source\PSoC4/ISR_TurnOff_Sink.c ****     ISR_TurnOff_Sink_SetVector(&IntDefaultHandler);
 122              		.loc 1 135 0
 123 0008 034B     		ldr	r3, .L6
 124 000a 1800     		movs	r0, r3
 125 000c FFF7FEFF 		bl	ISR_TurnOff_Sink_SetVector
 136:Generated_Source\PSoC4/ISR_TurnOff_Sink.c **** }
 126              		.loc 1 136 0
 127 0010 C046     		nop
 128 0012 BD46     		mov	sp, r7
 129              		@ sp needed
 130 0014 80BD     		pop	{r7, pc}
 131              	.L7:
 132 0016 C046     		.align	2
 133              	.L6:
 134 0018 00000000 		.word	IntDefaultHandler
 135              		.cfi_endproc
 136              	.LFE34:
 137              		.size	ISR_TurnOff_Sink_Stop, .-ISR_TurnOff_Sink_Stop
 138              		.section	.text.ISR_TurnOff_Sink_Interrupt,"ax",%progbits
 139              		.align	2
 140              		.global	ISR_TurnOff_Sink_Interrupt
 141              		.code	16
 142              		.thumb_func
 143              		.type	ISR_TurnOff_Sink_Interrupt, %function
 144              	ISR_TurnOff_Sink_Interrupt:
 145              	.LFB35:
 137:Generated_Source\PSoC4/ISR_TurnOff_Sink.c **** 
 138:Generated_Source\PSoC4/ISR_TurnOff_Sink.c **** 
 139:Generated_Source\PSoC4/ISR_TurnOff_Sink.c **** /*******************************************************************************
 140:Generated_Source\PSoC4/ISR_TurnOff_Sink.c **** * Function Name: ISR_TurnOff_Sink_Interrupt
ARM GAS  C:\Users\Lars\AppData\Local\Temp\ccGZDN8v.s 			page 6


 141:Generated_Source\PSoC4/ISR_TurnOff_Sink.c **** ********************************************************************************
 142:Generated_Source\PSoC4/ISR_TurnOff_Sink.c **** *
 143:Generated_Source\PSoC4/ISR_TurnOff_Sink.c **** * Summary:
 144:Generated_Source\PSoC4/ISR_TurnOff_Sink.c **** *   The default Interrupt Service Routine for ISR_TurnOff_Sink.
 145:Generated_Source\PSoC4/ISR_TurnOff_Sink.c **** *
 146:Generated_Source\PSoC4/ISR_TurnOff_Sink.c **** *   Add custom code between the START and END comments to keep the next version
 147:Generated_Source\PSoC4/ISR_TurnOff_Sink.c **** *   of this file from over-writing your code.
 148:Generated_Source\PSoC4/ISR_TurnOff_Sink.c **** *
 149:Generated_Source\PSoC4/ISR_TurnOff_Sink.c **** *   Note You may use either the default ISR by using this API, or you may define
 150:Generated_Source\PSoC4/ISR_TurnOff_Sink.c **** *   your own separate ISR through ISR_StartEx().
 151:Generated_Source\PSoC4/ISR_TurnOff_Sink.c **** *
 152:Generated_Source\PSoC4/ISR_TurnOff_Sink.c **** * Parameters:  
 153:Generated_Source\PSoC4/ISR_TurnOff_Sink.c **** *   None
 154:Generated_Source\PSoC4/ISR_TurnOff_Sink.c **** *
 155:Generated_Source\PSoC4/ISR_TurnOff_Sink.c **** * Return:
 156:Generated_Source\PSoC4/ISR_TurnOff_Sink.c **** *   None
 157:Generated_Source\PSoC4/ISR_TurnOff_Sink.c **** *
 158:Generated_Source\PSoC4/ISR_TurnOff_Sink.c **** *******************************************************************************/
 159:Generated_Source\PSoC4/ISR_TurnOff_Sink.c **** CY_ISR(ISR_TurnOff_Sink_Interrupt)
 160:Generated_Source\PSoC4/ISR_TurnOff_Sink.c **** {
 146              		.loc 1 160 0
 147              		.cfi_startproc
 148              		@ args = 0, pretend = 0, frame = 0
 149              		@ frame_needed = 1, uses_anonymous_args = 0
 150 0000 80B5     		push	{r7, lr}
 151              		.cfi_def_cfa_offset 8
 152              		.cfi_offset 7, -8
 153              		.cfi_offset 14, -4
 154 0002 00AF     		add	r7, sp, #0
 155              		.cfi_def_cfa_register 7
 161:Generated_Source\PSoC4/ISR_TurnOff_Sink.c ****     #ifdef ISR_TurnOff_Sink_INTERRUPT_INTERRUPT_CALLBACK
 162:Generated_Source\PSoC4/ISR_TurnOff_Sink.c ****         ISR_TurnOff_Sink_Interrupt_InterruptCallback();
 156              		.loc 1 162 0
 157 0004 FFF7FEFF 		bl	ISR_TurnOff_Sink_Interrupt_InterruptCallback
 163:Generated_Source\PSoC4/ISR_TurnOff_Sink.c ****     #endif /* ISR_TurnOff_Sink_INTERRUPT_INTERRUPT_CALLBACK */ 
 164:Generated_Source\PSoC4/ISR_TurnOff_Sink.c **** 
 165:Generated_Source\PSoC4/ISR_TurnOff_Sink.c ****     /*  Place your Interrupt code here. */
 166:Generated_Source\PSoC4/ISR_TurnOff_Sink.c ****     /* `#START ISR_TurnOff_Sink_Interrupt` */
 167:Generated_Source\PSoC4/ISR_TurnOff_Sink.c **** 
 168:Generated_Source\PSoC4/ISR_TurnOff_Sink.c ****     /* `#END` */
 169:Generated_Source\PSoC4/ISR_TurnOff_Sink.c **** }
 158              		.loc 1 169 0
 159 0008 C046     		nop
 160 000a BD46     		mov	sp, r7
 161              		@ sp needed
 162 000c 80BD     		pop	{r7, pc}
 163              		.cfi_endproc
 164              	.LFE35:
 165              		.size	ISR_TurnOff_Sink_Interrupt, .-ISR_TurnOff_Sink_Interrupt
 166 000e C046     		.section	.text.ISR_TurnOff_Sink_SetVector,"ax",%progbits
 167              		.align	2
 168              		.global	ISR_TurnOff_Sink_SetVector
 169              		.code	16
 170              		.thumb_func
 171              		.type	ISR_TurnOff_Sink_SetVector, %function
 172              	ISR_TurnOff_Sink_SetVector:
 173              	.LFB36:
ARM GAS  C:\Users\Lars\AppData\Local\Temp\ccGZDN8v.s 			page 7


 170:Generated_Source\PSoC4/ISR_TurnOff_Sink.c **** 
 171:Generated_Source\PSoC4/ISR_TurnOff_Sink.c **** 
 172:Generated_Source\PSoC4/ISR_TurnOff_Sink.c **** /*******************************************************************************
 173:Generated_Source\PSoC4/ISR_TurnOff_Sink.c **** * Function Name: ISR_TurnOff_Sink_SetVector
 174:Generated_Source\PSoC4/ISR_TurnOff_Sink.c **** ********************************************************************************
 175:Generated_Source\PSoC4/ISR_TurnOff_Sink.c **** *
 176:Generated_Source\PSoC4/ISR_TurnOff_Sink.c **** * Summary:
 177:Generated_Source\PSoC4/ISR_TurnOff_Sink.c **** *   Change the ISR vector for the Interrupt. Note calling ISR_TurnOff_Sink_Start
 178:Generated_Source\PSoC4/ISR_TurnOff_Sink.c **** *   will override any effect this method would have had. To set the vector 
 179:Generated_Source\PSoC4/ISR_TurnOff_Sink.c **** *   before the component has been started use ISR_TurnOff_Sink_StartEx instead.
 180:Generated_Source\PSoC4/ISR_TurnOff_Sink.c **** * 
 181:Generated_Source\PSoC4/ISR_TurnOff_Sink.c **** *   When defining ISR functions, the CY_ISR and CY_ISR_PROTO macros should be 
 182:Generated_Source\PSoC4/ISR_TurnOff_Sink.c **** *   used to provide consistent definition across compilers:
 183:Generated_Source\PSoC4/ISR_TurnOff_Sink.c **** *
 184:Generated_Source\PSoC4/ISR_TurnOff_Sink.c **** *   Function definition example:
 185:Generated_Source\PSoC4/ISR_TurnOff_Sink.c **** *   CY_ISR(MyISR)
 186:Generated_Source\PSoC4/ISR_TurnOff_Sink.c **** *   {
 187:Generated_Source\PSoC4/ISR_TurnOff_Sink.c **** *   }
 188:Generated_Source\PSoC4/ISR_TurnOff_Sink.c **** *
 189:Generated_Source\PSoC4/ISR_TurnOff_Sink.c **** *   Function prototype example:
 190:Generated_Source\PSoC4/ISR_TurnOff_Sink.c **** *     CY_ISR_PROTO(MyISR);
 191:Generated_Source\PSoC4/ISR_TurnOff_Sink.c **** *
 192:Generated_Source\PSoC4/ISR_TurnOff_Sink.c **** * Parameters:
 193:Generated_Source\PSoC4/ISR_TurnOff_Sink.c **** *   address: Address of the ISR to set in the interrupt vector table.
 194:Generated_Source\PSoC4/ISR_TurnOff_Sink.c **** *
 195:Generated_Source\PSoC4/ISR_TurnOff_Sink.c **** * Return:
 196:Generated_Source\PSoC4/ISR_TurnOff_Sink.c **** *   None
 197:Generated_Source\PSoC4/ISR_TurnOff_Sink.c **** *
 198:Generated_Source\PSoC4/ISR_TurnOff_Sink.c **** *******************************************************************************/
 199:Generated_Source\PSoC4/ISR_TurnOff_Sink.c **** void ISR_TurnOff_Sink_SetVector(cyisraddress address)
 200:Generated_Source\PSoC4/ISR_TurnOff_Sink.c **** {
 174              		.loc 1 200 0
 175              		.cfi_startproc
 176              		@ args = 0, pretend = 0, frame = 8
 177              		@ frame_needed = 1, uses_anonymous_args = 0
 178 0000 80B5     		push	{r7, lr}
 179              		.cfi_def_cfa_offset 8
 180              		.cfi_offset 7, -8
 181              		.cfi_offset 14, -4
 182 0002 82B0     		sub	sp, sp, #8
 183              		.cfi_def_cfa_offset 16
 184 0004 00AF     		add	r7, sp, #0
 185              		.cfi_def_cfa_register 7
 186 0006 7860     		str	r0, [r7, #4]
 201:Generated_Source\PSoC4/ISR_TurnOff_Sink.c ****     CyRamVectors[CYINT_IRQ_BASE + ISR_TurnOff_Sink__INTC_NUMBER] = address;
 187              		.loc 1 201 0
 188 0008 034B     		ldr	r3, .L10
 189 000a 7A68     		ldr	r2, [r7, #4]
 190 000c 1A64     		str	r2, [r3, #64]
 202:Generated_Source\PSoC4/ISR_TurnOff_Sink.c **** }
 191              		.loc 1 202 0
 192 000e C046     		nop
 193 0010 BD46     		mov	sp, r7
 194 0012 02B0     		add	sp, sp, #8
 195              		@ sp needed
 196 0014 80BD     		pop	{r7, pc}
 197              	.L11:
ARM GAS  C:\Users\Lars\AppData\Local\Temp\ccGZDN8v.s 			page 8


 198 0016 C046     		.align	2
 199              	.L10:
 200 0018 00000000 		.word	CyRamVectors
 201              		.cfi_endproc
 202              	.LFE36:
 203              		.size	ISR_TurnOff_Sink_SetVector, .-ISR_TurnOff_Sink_SetVector
 204              		.section	.text.ISR_TurnOff_Sink_GetVector,"ax",%progbits
 205              		.align	2
 206              		.global	ISR_TurnOff_Sink_GetVector
 207              		.code	16
 208              		.thumb_func
 209              		.type	ISR_TurnOff_Sink_GetVector, %function
 210              	ISR_TurnOff_Sink_GetVector:
 211              	.LFB37:
 203:Generated_Source\PSoC4/ISR_TurnOff_Sink.c **** 
 204:Generated_Source\PSoC4/ISR_TurnOff_Sink.c **** 
 205:Generated_Source\PSoC4/ISR_TurnOff_Sink.c **** /*******************************************************************************
 206:Generated_Source\PSoC4/ISR_TurnOff_Sink.c **** * Function Name: ISR_TurnOff_Sink_GetVector
 207:Generated_Source\PSoC4/ISR_TurnOff_Sink.c **** ********************************************************************************
 208:Generated_Source\PSoC4/ISR_TurnOff_Sink.c **** *
 209:Generated_Source\PSoC4/ISR_TurnOff_Sink.c **** * Summary:
 210:Generated_Source\PSoC4/ISR_TurnOff_Sink.c **** *   Gets the "address" of the current ISR vector for the Interrupt.
 211:Generated_Source\PSoC4/ISR_TurnOff_Sink.c **** *
 212:Generated_Source\PSoC4/ISR_TurnOff_Sink.c **** * Parameters:
 213:Generated_Source\PSoC4/ISR_TurnOff_Sink.c **** *   None
 214:Generated_Source\PSoC4/ISR_TurnOff_Sink.c **** *
 215:Generated_Source\PSoC4/ISR_TurnOff_Sink.c **** * Return:
 216:Generated_Source\PSoC4/ISR_TurnOff_Sink.c **** *   Address of the ISR in the interrupt vector table.
 217:Generated_Source\PSoC4/ISR_TurnOff_Sink.c **** *
 218:Generated_Source\PSoC4/ISR_TurnOff_Sink.c **** *******************************************************************************/
 219:Generated_Source\PSoC4/ISR_TurnOff_Sink.c **** cyisraddress ISR_TurnOff_Sink_GetVector(void)
 220:Generated_Source\PSoC4/ISR_TurnOff_Sink.c **** {
 212              		.loc 1 220 0
 213              		.cfi_startproc
 214              		@ args = 0, pretend = 0, frame = 0
 215              		@ frame_needed = 1, uses_anonymous_args = 0
 216 0000 80B5     		push	{r7, lr}
 217              		.cfi_def_cfa_offset 8
 218              		.cfi_offset 7, -8
 219              		.cfi_offset 14, -4
 220 0002 00AF     		add	r7, sp, #0
 221              		.cfi_def_cfa_register 7
 221:Generated_Source\PSoC4/ISR_TurnOff_Sink.c ****     return CyRamVectors[CYINT_IRQ_BASE + ISR_TurnOff_Sink__INTC_NUMBER];
 222              		.loc 1 221 0
 223 0004 024B     		ldr	r3, .L14
 224 0006 1B6C     		ldr	r3, [r3, #64]
 222:Generated_Source\PSoC4/ISR_TurnOff_Sink.c **** }
 225              		.loc 1 222 0
 226 0008 1800     		movs	r0, r3
 227 000a BD46     		mov	sp, r7
 228              		@ sp needed
 229 000c 80BD     		pop	{r7, pc}
 230              	.L15:
 231 000e C046     		.align	2
 232              	.L14:
 233 0010 00000000 		.word	CyRamVectors
 234              		.cfi_endproc
ARM GAS  C:\Users\Lars\AppData\Local\Temp\ccGZDN8v.s 			page 9


 235              	.LFE37:
 236              		.size	ISR_TurnOff_Sink_GetVector, .-ISR_TurnOff_Sink_GetVector
 237              		.section	.text.ISR_TurnOff_Sink_SetPriority,"ax",%progbits
 238              		.align	2
 239              		.global	ISR_TurnOff_Sink_SetPriority
 240              		.code	16
 241              		.thumb_func
 242              		.type	ISR_TurnOff_Sink_SetPriority, %function
 243              	ISR_TurnOff_Sink_SetPriority:
 244              	.LFB38:
 223:Generated_Source\PSoC4/ISR_TurnOff_Sink.c **** 
 224:Generated_Source\PSoC4/ISR_TurnOff_Sink.c **** 
 225:Generated_Source\PSoC4/ISR_TurnOff_Sink.c **** /*******************************************************************************
 226:Generated_Source\PSoC4/ISR_TurnOff_Sink.c **** * Function Name: ISR_TurnOff_Sink_SetPriority
 227:Generated_Source\PSoC4/ISR_TurnOff_Sink.c **** ********************************************************************************
 228:Generated_Source\PSoC4/ISR_TurnOff_Sink.c **** *
 229:Generated_Source\PSoC4/ISR_TurnOff_Sink.c **** * Summary:
 230:Generated_Source\PSoC4/ISR_TurnOff_Sink.c **** *   Sets the Priority of the Interrupt. 
 231:Generated_Source\PSoC4/ISR_TurnOff_Sink.c **** *
 232:Generated_Source\PSoC4/ISR_TurnOff_Sink.c **** *   Note calling ISR_TurnOff_Sink_Start or ISR_TurnOff_Sink_StartEx will 
 233:Generated_Source\PSoC4/ISR_TurnOff_Sink.c **** *   override any effect this API would have had. This API should only be called
 234:Generated_Source\PSoC4/ISR_TurnOff_Sink.c **** *   after ISR_TurnOff_Sink_Start or ISR_TurnOff_Sink_StartEx has been called. 
 235:Generated_Source\PSoC4/ISR_TurnOff_Sink.c **** *   To set the initial priority for the component, use the Design-Wide Resources
 236:Generated_Source\PSoC4/ISR_TurnOff_Sink.c **** *   Interrupt Editor.
 237:Generated_Source\PSoC4/ISR_TurnOff_Sink.c **** *
 238:Generated_Source\PSoC4/ISR_TurnOff_Sink.c **** *   Note This API has no effect on Non-maskable interrupt NMI).
 239:Generated_Source\PSoC4/ISR_TurnOff_Sink.c **** *
 240:Generated_Source\PSoC4/ISR_TurnOff_Sink.c **** * Parameters:
 241:Generated_Source\PSoC4/ISR_TurnOff_Sink.c **** *   priority: Priority of the interrupt, 0 being the highest priority
 242:Generated_Source\PSoC4/ISR_TurnOff_Sink.c **** *             PSoC 3 and PSoC 5LP: Priority is from 0 to 7.
 243:Generated_Source\PSoC4/ISR_TurnOff_Sink.c **** *             PSoC 4: Priority is from 0 to 3.
 244:Generated_Source\PSoC4/ISR_TurnOff_Sink.c **** *
 245:Generated_Source\PSoC4/ISR_TurnOff_Sink.c **** * Return:
 246:Generated_Source\PSoC4/ISR_TurnOff_Sink.c **** *   None
 247:Generated_Source\PSoC4/ISR_TurnOff_Sink.c **** *
 248:Generated_Source\PSoC4/ISR_TurnOff_Sink.c **** *******************************************************************************/
 249:Generated_Source\PSoC4/ISR_TurnOff_Sink.c **** void ISR_TurnOff_Sink_SetPriority(uint8 priority)
 250:Generated_Source\PSoC4/ISR_TurnOff_Sink.c **** {
 245              		.loc 1 250 0
 246              		.cfi_startproc
 247              		@ args = 0, pretend = 0, frame = 16
 248              		@ frame_needed = 1, uses_anonymous_args = 0
 249 0000 90B5     		push	{r4, r7, lr}
 250              		.cfi_def_cfa_offset 12
 251              		.cfi_offset 4, -12
 252              		.cfi_offset 7, -8
 253              		.cfi_offset 14, -4
 254 0002 85B0     		sub	sp, sp, #20
 255              		.cfi_def_cfa_offset 32
 256 0004 00AF     		add	r7, sp, #0
 257              		.cfi_def_cfa_register 7
 258 0006 0200     		movs	r2, r0
 259 0008 FB1D     		adds	r3, r7, #7
 260 000a 1A70     		strb	r2, [r3]
 251:Generated_Source\PSoC4/ISR_TurnOff_Sink.c **** 	uint8 interruptState;
 252:Generated_Source\PSoC4/ISR_TurnOff_Sink.c ****     uint32 priorityOffset = ((ISR_TurnOff_Sink__INTC_NUMBER % 4u) * 8u) + 6u;
 261              		.loc 1 252 0
ARM GAS  C:\Users\Lars\AppData\Local\Temp\ccGZDN8v.s 			page 10


 262 000c 0623     		movs	r3, #6
 263 000e FB60     		str	r3, [r7, #12]
 253:Generated_Source\PSoC4/ISR_TurnOff_Sink.c ****     
 254:Generated_Source\PSoC4/ISR_TurnOff_Sink.c **** 	interruptState = CyEnterCriticalSection();
 264              		.loc 1 254 0
 265 0010 0B23     		movs	r3, #11
 266 0012 FC18     		adds	r4, r7, r3
 267 0014 FFF7FEFF 		bl	CyEnterCriticalSection
 268 0018 0300     		movs	r3, r0
 269 001a 2370     		strb	r3, [r4]
 255:Generated_Source\PSoC4/ISR_TurnOff_Sink.c ****     *ISR_TurnOff_Sink_INTC_PRIOR = (*ISR_TurnOff_Sink_INTC_PRIOR & (uint32)(~ISR_TurnOff_Sink__INTC
 270              		.loc 1 255 0
 271 001c 0B4B     		ldr	r3, .L17
 272 001e 0B4A     		ldr	r2, .L17
 273 0020 1268     		ldr	r2, [r2]
 274 0022 C021     		movs	r1, #192
 275 0024 8A43     		bics	r2, r1
 276 0026 1100     		movs	r1, r2
 256:Generated_Source\PSoC4/ISR_TurnOff_Sink.c ****                                     ((uint32)priority << priorityOffset);
 277              		.loc 1 256 0
 278 0028 FA1D     		adds	r2, r7, #7
 279 002a 1078     		ldrb	r0, [r2]
 280 002c FA68     		ldr	r2, [r7, #12]
 281 002e 9040     		lsls	r0, r0, r2
 282 0030 0200     		movs	r2, r0
 255:Generated_Source\PSoC4/ISR_TurnOff_Sink.c ****     *ISR_TurnOff_Sink_INTC_PRIOR = (*ISR_TurnOff_Sink_INTC_PRIOR & (uint32)(~ISR_TurnOff_Sink__INTC
 283              		.loc 1 255 0
 284 0032 0A43     		orrs	r2, r1
 285 0034 1A60     		str	r2, [r3]
 257:Generated_Source\PSoC4/ISR_TurnOff_Sink.c **** 	CyExitCriticalSection(interruptState);
 286              		.loc 1 257 0
 287 0036 0B23     		movs	r3, #11
 288 0038 FB18     		adds	r3, r7, r3
 289 003a 1B78     		ldrb	r3, [r3]
 290 003c 1800     		movs	r0, r3
 291 003e FFF7FEFF 		bl	CyExitCriticalSection
 258:Generated_Source\PSoC4/ISR_TurnOff_Sink.c **** }
 292              		.loc 1 258 0
 293 0042 C046     		nop
 294 0044 BD46     		mov	sp, r7
 295 0046 05B0     		add	sp, sp, #20
 296              		@ sp needed
 297 0048 90BD     		pop	{r4, r7, pc}
 298              	.L18:
 299 004a C046     		.align	2
 300              	.L17:
 301 004c 00E400E0 		.word	-536812544
 302              		.cfi_endproc
 303              	.LFE38:
 304              		.size	ISR_TurnOff_Sink_SetPriority, .-ISR_TurnOff_Sink_SetPriority
 305              		.section	.text.ISR_TurnOff_Sink_GetPriority,"ax",%progbits
 306              		.align	2
 307              		.global	ISR_TurnOff_Sink_GetPriority
 308              		.code	16
 309              		.thumb_func
 310              		.type	ISR_TurnOff_Sink_GetPriority, %function
 311              	ISR_TurnOff_Sink_GetPriority:
ARM GAS  C:\Users\Lars\AppData\Local\Temp\ccGZDN8v.s 			page 11


 312              	.LFB39:
 259:Generated_Source\PSoC4/ISR_TurnOff_Sink.c **** 
 260:Generated_Source\PSoC4/ISR_TurnOff_Sink.c **** 
 261:Generated_Source\PSoC4/ISR_TurnOff_Sink.c **** /*******************************************************************************
 262:Generated_Source\PSoC4/ISR_TurnOff_Sink.c **** * Function Name: ISR_TurnOff_Sink_GetPriority
 263:Generated_Source\PSoC4/ISR_TurnOff_Sink.c **** ********************************************************************************
 264:Generated_Source\PSoC4/ISR_TurnOff_Sink.c **** *
 265:Generated_Source\PSoC4/ISR_TurnOff_Sink.c **** * Summary:
 266:Generated_Source\PSoC4/ISR_TurnOff_Sink.c **** *   Gets the Priority of the Interrupt.
 267:Generated_Source\PSoC4/ISR_TurnOff_Sink.c **** *
 268:Generated_Source\PSoC4/ISR_TurnOff_Sink.c **** * Parameters:
 269:Generated_Source\PSoC4/ISR_TurnOff_Sink.c **** *   None
 270:Generated_Source\PSoC4/ISR_TurnOff_Sink.c **** *
 271:Generated_Source\PSoC4/ISR_TurnOff_Sink.c **** * Return:
 272:Generated_Source\PSoC4/ISR_TurnOff_Sink.c **** *   Priority of the interrupt, 0 being the highest priority
 273:Generated_Source\PSoC4/ISR_TurnOff_Sink.c **** *    PSoC 3 and PSoC 5LP: Priority is from 0 to 7.
 274:Generated_Source\PSoC4/ISR_TurnOff_Sink.c **** *    PSoC 4: Priority is from 0 to 3.
 275:Generated_Source\PSoC4/ISR_TurnOff_Sink.c **** *
 276:Generated_Source\PSoC4/ISR_TurnOff_Sink.c **** *******************************************************************************/
 277:Generated_Source\PSoC4/ISR_TurnOff_Sink.c **** uint8 ISR_TurnOff_Sink_GetPriority(void)
 278:Generated_Source\PSoC4/ISR_TurnOff_Sink.c **** {
 313              		.loc 1 278 0
 314              		.cfi_startproc
 315              		@ args = 0, pretend = 0, frame = 8
 316              		@ frame_needed = 1, uses_anonymous_args = 0
 317 0000 80B5     		push	{r7, lr}
 318              		.cfi_def_cfa_offset 8
 319              		.cfi_offset 7, -8
 320              		.cfi_offset 14, -4
 321 0002 82B0     		sub	sp, sp, #8
 322              		.cfi_def_cfa_offset 16
 323 0004 00AF     		add	r7, sp, #0
 324              		.cfi_def_cfa_register 7
 279:Generated_Source\PSoC4/ISR_TurnOff_Sink.c ****     uint32 priority;
 280:Generated_Source\PSoC4/ISR_TurnOff_Sink.c **** 	uint32 priorityOffset = ((ISR_TurnOff_Sink__INTC_NUMBER % 4u) * 8u) + 6u;
 325              		.loc 1 280 0
 326 0006 0623     		movs	r3, #6
 327 0008 7B60     		str	r3, [r7, #4]
 281:Generated_Source\PSoC4/ISR_TurnOff_Sink.c **** 
 282:Generated_Source\PSoC4/ISR_TurnOff_Sink.c ****     priority = (*ISR_TurnOff_Sink_INTC_PRIOR & ISR_TurnOff_Sink__INTC_PRIOR_MASK) >> priorityOffset
 328              		.loc 1 282 0
 329 000a 074B     		ldr	r3, .L21
 330 000c 1B68     		ldr	r3, [r3]
 331 000e C022     		movs	r2, #192
 332 0010 1A40     		ands	r2, r3
 333 0012 7B68     		ldr	r3, [r7, #4]
 334 0014 DA40     		lsrs	r2, r2, r3
 335 0016 1300     		movs	r3, r2
 336 0018 3B60     		str	r3, [r7]
 283:Generated_Source\PSoC4/ISR_TurnOff_Sink.c **** 
 284:Generated_Source\PSoC4/ISR_TurnOff_Sink.c ****     return (uint8)priority;
 337              		.loc 1 284 0
 338 001a 3B68     		ldr	r3, [r7]
 339 001c DBB2     		uxtb	r3, r3
 285:Generated_Source\PSoC4/ISR_TurnOff_Sink.c **** }
 340              		.loc 1 285 0
 341 001e 1800     		movs	r0, r3
ARM GAS  C:\Users\Lars\AppData\Local\Temp\ccGZDN8v.s 			page 12


 342 0020 BD46     		mov	sp, r7
 343 0022 02B0     		add	sp, sp, #8
 344              		@ sp needed
 345 0024 80BD     		pop	{r7, pc}
 346              	.L22:
 347 0026 C046     		.align	2
 348              	.L21:
 349 0028 00E400E0 		.word	-536812544
 350              		.cfi_endproc
 351              	.LFE39:
 352              		.size	ISR_TurnOff_Sink_GetPriority, .-ISR_TurnOff_Sink_GetPriority
 353              		.section	.text.ISR_TurnOff_Sink_Enable,"ax",%progbits
 354              		.align	2
 355              		.global	ISR_TurnOff_Sink_Enable
 356              		.code	16
 357              		.thumb_func
 358              		.type	ISR_TurnOff_Sink_Enable, %function
 359              	ISR_TurnOff_Sink_Enable:
 360              	.LFB40:
 286:Generated_Source\PSoC4/ISR_TurnOff_Sink.c **** 
 287:Generated_Source\PSoC4/ISR_TurnOff_Sink.c **** 
 288:Generated_Source\PSoC4/ISR_TurnOff_Sink.c **** /*******************************************************************************
 289:Generated_Source\PSoC4/ISR_TurnOff_Sink.c **** * Function Name: ISR_TurnOff_Sink_Enable
 290:Generated_Source\PSoC4/ISR_TurnOff_Sink.c **** ********************************************************************************
 291:Generated_Source\PSoC4/ISR_TurnOff_Sink.c **** *
 292:Generated_Source\PSoC4/ISR_TurnOff_Sink.c **** * Summary:
 293:Generated_Source\PSoC4/ISR_TurnOff_Sink.c **** *   Enables the interrupt to the interrupt controller. Do not call this function
 294:Generated_Source\PSoC4/ISR_TurnOff_Sink.c **** *   unless ISR_Start() has been called or the functionality of the ISR_Start() 
 295:Generated_Source\PSoC4/ISR_TurnOff_Sink.c **** *   function, which sets the vector and the priority, has been called.
 296:Generated_Source\PSoC4/ISR_TurnOff_Sink.c **** *
 297:Generated_Source\PSoC4/ISR_TurnOff_Sink.c **** * Parameters:
 298:Generated_Source\PSoC4/ISR_TurnOff_Sink.c **** *   None
 299:Generated_Source\PSoC4/ISR_TurnOff_Sink.c **** *
 300:Generated_Source\PSoC4/ISR_TurnOff_Sink.c **** * Return:
 301:Generated_Source\PSoC4/ISR_TurnOff_Sink.c **** *   None
 302:Generated_Source\PSoC4/ISR_TurnOff_Sink.c **** *
 303:Generated_Source\PSoC4/ISR_TurnOff_Sink.c **** *******************************************************************************/
 304:Generated_Source\PSoC4/ISR_TurnOff_Sink.c **** void ISR_TurnOff_Sink_Enable(void)
 305:Generated_Source\PSoC4/ISR_TurnOff_Sink.c **** {
 361              		.loc 1 305 0
 362              		.cfi_startproc
 363              		@ args = 0, pretend = 0, frame = 0
 364              		@ frame_needed = 1, uses_anonymous_args = 0
 365 0000 80B5     		push	{r7, lr}
 366              		.cfi_def_cfa_offset 8
 367              		.cfi_offset 7, -8
 368              		.cfi_offset 14, -4
 369 0002 00AF     		add	r7, sp, #0
 370              		.cfi_def_cfa_register 7
 306:Generated_Source\PSoC4/ISR_TurnOff_Sink.c ****     /* Enable the general interrupt. */
 307:Generated_Source\PSoC4/ISR_TurnOff_Sink.c ****     *ISR_TurnOff_Sink_INTC_SET_EN = ISR_TurnOff_Sink__INTC_MASK;
 371              		.loc 1 307 0
 372 0004 024B     		ldr	r3, .L24
 373 0006 0122     		movs	r2, #1
 374 0008 1A60     		str	r2, [r3]
 308:Generated_Source\PSoC4/ISR_TurnOff_Sink.c **** }
 375              		.loc 1 308 0
ARM GAS  C:\Users\Lars\AppData\Local\Temp\ccGZDN8v.s 			page 13


 376 000a C046     		nop
 377 000c BD46     		mov	sp, r7
 378              		@ sp needed
 379 000e 80BD     		pop	{r7, pc}
 380              	.L25:
 381              		.align	2
 382              	.L24:
 383 0010 00E100E0 		.word	-536813312
 384              		.cfi_endproc
 385              	.LFE40:
 386              		.size	ISR_TurnOff_Sink_Enable, .-ISR_TurnOff_Sink_Enable
 387              		.section	.text.ISR_TurnOff_Sink_GetState,"ax",%progbits
 388              		.align	2
 389              		.global	ISR_TurnOff_Sink_GetState
 390              		.code	16
 391              		.thumb_func
 392              		.type	ISR_TurnOff_Sink_GetState, %function
 393              	ISR_TurnOff_Sink_GetState:
 394              	.LFB41:
 309:Generated_Source\PSoC4/ISR_TurnOff_Sink.c **** 
 310:Generated_Source\PSoC4/ISR_TurnOff_Sink.c **** 
 311:Generated_Source\PSoC4/ISR_TurnOff_Sink.c **** /*******************************************************************************
 312:Generated_Source\PSoC4/ISR_TurnOff_Sink.c **** * Function Name: ISR_TurnOff_Sink_GetState
 313:Generated_Source\PSoC4/ISR_TurnOff_Sink.c **** ********************************************************************************
 314:Generated_Source\PSoC4/ISR_TurnOff_Sink.c **** *
 315:Generated_Source\PSoC4/ISR_TurnOff_Sink.c **** * Summary:
 316:Generated_Source\PSoC4/ISR_TurnOff_Sink.c **** *   Gets the state (enabled, disabled) of the Interrupt.
 317:Generated_Source\PSoC4/ISR_TurnOff_Sink.c **** *
 318:Generated_Source\PSoC4/ISR_TurnOff_Sink.c **** * Parameters:
 319:Generated_Source\PSoC4/ISR_TurnOff_Sink.c **** *   None
 320:Generated_Source\PSoC4/ISR_TurnOff_Sink.c **** *
 321:Generated_Source\PSoC4/ISR_TurnOff_Sink.c **** * Return:
 322:Generated_Source\PSoC4/ISR_TurnOff_Sink.c **** *   1 if enabled, 0 if disabled.
 323:Generated_Source\PSoC4/ISR_TurnOff_Sink.c **** *
 324:Generated_Source\PSoC4/ISR_TurnOff_Sink.c **** *******************************************************************************/
 325:Generated_Source\PSoC4/ISR_TurnOff_Sink.c **** uint8 ISR_TurnOff_Sink_GetState(void)
 326:Generated_Source\PSoC4/ISR_TurnOff_Sink.c **** {
 395              		.loc 1 326 0
 396              		.cfi_startproc
 397              		@ args = 0, pretend = 0, frame = 0
 398              		@ frame_needed = 1, uses_anonymous_args = 0
 399 0000 80B5     		push	{r7, lr}
 400              		.cfi_def_cfa_offset 8
 401              		.cfi_offset 7, -8
 402              		.cfi_offset 14, -4
 403 0002 00AF     		add	r7, sp, #0
 404              		.cfi_def_cfa_register 7
 327:Generated_Source\PSoC4/ISR_TurnOff_Sink.c ****     /* Get the state of the general interrupt. */
 328:Generated_Source\PSoC4/ISR_TurnOff_Sink.c ****     return ((*ISR_TurnOff_Sink_INTC_SET_EN & (uint32)ISR_TurnOff_Sink__INTC_MASK) != 0u) ? 1u:0u;
 405              		.loc 1 328 0
 406 0004 044B     		ldr	r3, .L28
 407 0006 1B68     		ldr	r3, [r3]
 408 0008 DBB2     		uxtb	r3, r3
 409 000a 0122     		movs	r2, #1
 410 000c 1340     		ands	r3, r2
 411 000e DBB2     		uxtb	r3, r3
 329:Generated_Source\PSoC4/ISR_TurnOff_Sink.c **** }
ARM GAS  C:\Users\Lars\AppData\Local\Temp\ccGZDN8v.s 			page 14


 412              		.loc 1 329 0
 413 0010 1800     		movs	r0, r3
 414 0012 BD46     		mov	sp, r7
 415              		@ sp needed
 416 0014 80BD     		pop	{r7, pc}
 417              	.L29:
 418 0016 C046     		.align	2
 419              	.L28:
 420 0018 00E100E0 		.word	-536813312
 421              		.cfi_endproc
 422              	.LFE41:
 423              		.size	ISR_TurnOff_Sink_GetState, .-ISR_TurnOff_Sink_GetState
 424              		.section	.text.ISR_TurnOff_Sink_Disable,"ax",%progbits
 425              		.align	2
 426              		.global	ISR_TurnOff_Sink_Disable
 427              		.code	16
 428              		.thumb_func
 429              		.type	ISR_TurnOff_Sink_Disable, %function
 430              	ISR_TurnOff_Sink_Disable:
 431              	.LFB42:
 330:Generated_Source\PSoC4/ISR_TurnOff_Sink.c **** 
 331:Generated_Source\PSoC4/ISR_TurnOff_Sink.c **** 
 332:Generated_Source\PSoC4/ISR_TurnOff_Sink.c **** /*******************************************************************************
 333:Generated_Source\PSoC4/ISR_TurnOff_Sink.c **** * Function Name: ISR_TurnOff_Sink_Disable
 334:Generated_Source\PSoC4/ISR_TurnOff_Sink.c **** ********************************************************************************
 335:Generated_Source\PSoC4/ISR_TurnOff_Sink.c **** *
 336:Generated_Source\PSoC4/ISR_TurnOff_Sink.c **** * Summary:
 337:Generated_Source\PSoC4/ISR_TurnOff_Sink.c **** *   Disables the Interrupt in the interrupt controller.
 338:Generated_Source\PSoC4/ISR_TurnOff_Sink.c **** *
 339:Generated_Source\PSoC4/ISR_TurnOff_Sink.c **** * Parameters:
 340:Generated_Source\PSoC4/ISR_TurnOff_Sink.c **** *   None
 341:Generated_Source\PSoC4/ISR_TurnOff_Sink.c **** *
 342:Generated_Source\PSoC4/ISR_TurnOff_Sink.c **** * Return:
 343:Generated_Source\PSoC4/ISR_TurnOff_Sink.c **** *   None
 344:Generated_Source\PSoC4/ISR_TurnOff_Sink.c **** *
 345:Generated_Source\PSoC4/ISR_TurnOff_Sink.c **** *******************************************************************************/
 346:Generated_Source\PSoC4/ISR_TurnOff_Sink.c **** void ISR_TurnOff_Sink_Disable(void)
 347:Generated_Source\PSoC4/ISR_TurnOff_Sink.c **** {
 432              		.loc 1 347 0
 433              		.cfi_startproc
 434              		@ args = 0, pretend = 0, frame = 0
 435              		@ frame_needed = 1, uses_anonymous_args = 0
 436 0000 80B5     		push	{r7, lr}
 437              		.cfi_def_cfa_offset 8
 438              		.cfi_offset 7, -8
 439              		.cfi_offset 14, -4
 440 0002 00AF     		add	r7, sp, #0
 441              		.cfi_def_cfa_register 7
 348:Generated_Source\PSoC4/ISR_TurnOff_Sink.c ****     /* Disable the general interrupt. */
 349:Generated_Source\PSoC4/ISR_TurnOff_Sink.c ****     *ISR_TurnOff_Sink_INTC_CLR_EN = ISR_TurnOff_Sink__INTC_MASK;
 442              		.loc 1 349 0
 443 0004 024B     		ldr	r3, .L31
 444 0006 0122     		movs	r2, #1
 445 0008 1A60     		str	r2, [r3]
 350:Generated_Source\PSoC4/ISR_TurnOff_Sink.c **** }
 446              		.loc 1 350 0
 447 000a C046     		nop
ARM GAS  C:\Users\Lars\AppData\Local\Temp\ccGZDN8v.s 			page 15


 448 000c BD46     		mov	sp, r7
 449              		@ sp needed
 450 000e 80BD     		pop	{r7, pc}
 451              	.L32:
 452              		.align	2
 453              	.L31:
 454 0010 80E100E0 		.word	-536813184
 455              		.cfi_endproc
 456              	.LFE42:
 457              		.size	ISR_TurnOff_Sink_Disable, .-ISR_TurnOff_Sink_Disable
 458              		.section	.text.ISR_TurnOff_Sink_SetPending,"ax",%progbits
 459              		.align	2
 460              		.global	ISR_TurnOff_Sink_SetPending
 461              		.code	16
 462              		.thumb_func
 463              		.type	ISR_TurnOff_Sink_SetPending, %function
 464              	ISR_TurnOff_Sink_SetPending:
 465              	.LFB43:
 351:Generated_Source\PSoC4/ISR_TurnOff_Sink.c **** 
 352:Generated_Source\PSoC4/ISR_TurnOff_Sink.c **** 
 353:Generated_Source\PSoC4/ISR_TurnOff_Sink.c **** /*******************************************************************************
 354:Generated_Source\PSoC4/ISR_TurnOff_Sink.c **** * Function Name: ISR_TurnOff_Sink_SetPending
 355:Generated_Source\PSoC4/ISR_TurnOff_Sink.c **** ********************************************************************************
 356:Generated_Source\PSoC4/ISR_TurnOff_Sink.c **** *
 357:Generated_Source\PSoC4/ISR_TurnOff_Sink.c **** * Summary:
 358:Generated_Source\PSoC4/ISR_TurnOff_Sink.c **** *   Causes the Interrupt to enter the pending state, a software method of
 359:Generated_Source\PSoC4/ISR_TurnOff_Sink.c **** *   generating the interrupt.
 360:Generated_Source\PSoC4/ISR_TurnOff_Sink.c **** *
 361:Generated_Source\PSoC4/ISR_TurnOff_Sink.c **** * Parameters:
 362:Generated_Source\PSoC4/ISR_TurnOff_Sink.c **** *   None
 363:Generated_Source\PSoC4/ISR_TurnOff_Sink.c **** *
 364:Generated_Source\PSoC4/ISR_TurnOff_Sink.c **** * Return:
 365:Generated_Source\PSoC4/ISR_TurnOff_Sink.c **** *   None
 366:Generated_Source\PSoC4/ISR_TurnOff_Sink.c **** *
 367:Generated_Source\PSoC4/ISR_TurnOff_Sink.c **** * Side Effects:
 368:Generated_Source\PSoC4/ISR_TurnOff_Sink.c **** *   If interrupts are enabled and the interrupt is set up properly, the ISR is
 369:Generated_Source\PSoC4/ISR_TurnOff_Sink.c **** *   entered (depending on the priority of this interrupt and other pending 
 370:Generated_Source\PSoC4/ISR_TurnOff_Sink.c **** *   interrupts).
 371:Generated_Source\PSoC4/ISR_TurnOff_Sink.c **** *
 372:Generated_Source\PSoC4/ISR_TurnOff_Sink.c **** *******************************************************************************/
 373:Generated_Source\PSoC4/ISR_TurnOff_Sink.c **** void ISR_TurnOff_Sink_SetPending(void)
 374:Generated_Source\PSoC4/ISR_TurnOff_Sink.c **** {
 466              		.loc 1 374 0
 467              		.cfi_startproc
 468              		@ args = 0, pretend = 0, frame = 0
 469              		@ frame_needed = 1, uses_anonymous_args = 0
 470 0000 80B5     		push	{r7, lr}
 471              		.cfi_def_cfa_offset 8
 472              		.cfi_offset 7, -8
 473              		.cfi_offset 14, -4
 474 0002 00AF     		add	r7, sp, #0
 475              		.cfi_def_cfa_register 7
 375:Generated_Source\PSoC4/ISR_TurnOff_Sink.c ****     *ISR_TurnOff_Sink_INTC_SET_PD = ISR_TurnOff_Sink__INTC_MASK;
 476              		.loc 1 375 0
 477 0004 024B     		ldr	r3, .L34
 478 0006 0122     		movs	r2, #1
 479 0008 1A60     		str	r2, [r3]
ARM GAS  C:\Users\Lars\AppData\Local\Temp\ccGZDN8v.s 			page 16


 376:Generated_Source\PSoC4/ISR_TurnOff_Sink.c **** }
 480              		.loc 1 376 0
 481 000a C046     		nop
 482 000c BD46     		mov	sp, r7
 483              		@ sp needed
 484 000e 80BD     		pop	{r7, pc}
 485              	.L35:
 486              		.align	2
 487              	.L34:
 488 0010 00E200E0 		.word	-536813056
 489              		.cfi_endproc
 490              	.LFE43:
 491              		.size	ISR_TurnOff_Sink_SetPending, .-ISR_TurnOff_Sink_SetPending
 492              		.section	.text.ISR_TurnOff_Sink_ClearPending,"ax",%progbits
 493              		.align	2
 494              		.global	ISR_TurnOff_Sink_ClearPending
 495              		.code	16
 496              		.thumb_func
 497              		.type	ISR_TurnOff_Sink_ClearPending, %function
 498              	ISR_TurnOff_Sink_ClearPending:
 499              	.LFB44:
 377:Generated_Source\PSoC4/ISR_TurnOff_Sink.c **** 
 378:Generated_Source\PSoC4/ISR_TurnOff_Sink.c **** 
 379:Generated_Source\PSoC4/ISR_TurnOff_Sink.c **** /*******************************************************************************
 380:Generated_Source\PSoC4/ISR_TurnOff_Sink.c **** * Function Name: ISR_TurnOff_Sink_ClearPending
 381:Generated_Source\PSoC4/ISR_TurnOff_Sink.c **** ********************************************************************************
 382:Generated_Source\PSoC4/ISR_TurnOff_Sink.c **** *
 383:Generated_Source\PSoC4/ISR_TurnOff_Sink.c **** * Summary:
 384:Generated_Source\PSoC4/ISR_TurnOff_Sink.c **** *   Clears a pending interrupt in the interrupt controller.
 385:Generated_Source\PSoC4/ISR_TurnOff_Sink.c **** *
 386:Generated_Source\PSoC4/ISR_TurnOff_Sink.c **** *   Note Some interrupt sources are clear-on-read and require the block 
 387:Generated_Source\PSoC4/ISR_TurnOff_Sink.c **** *   interrupt/status register to be read/cleared with the appropriate block API 
 388:Generated_Source\PSoC4/ISR_TurnOff_Sink.c **** *   (GPIO, UART, and so on). Otherwise the ISR will continue to remain in 
 389:Generated_Source\PSoC4/ISR_TurnOff_Sink.c **** *   pending state even though the interrupt itself is cleared using this API.
 390:Generated_Source\PSoC4/ISR_TurnOff_Sink.c **** *
 391:Generated_Source\PSoC4/ISR_TurnOff_Sink.c **** * Parameters:
 392:Generated_Source\PSoC4/ISR_TurnOff_Sink.c **** *   None
 393:Generated_Source\PSoC4/ISR_TurnOff_Sink.c **** *
 394:Generated_Source\PSoC4/ISR_TurnOff_Sink.c **** * Return:
 395:Generated_Source\PSoC4/ISR_TurnOff_Sink.c **** *   None
 396:Generated_Source\PSoC4/ISR_TurnOff_Sink.c **** *
 397:Generated_Source\PSoC4/ISR_TurnOff_Sink.c **** *******************************************************************************/
 398:Generated_Source\PSoC4/ISR_TurnOff_Sink.c **** void ISR_TurnOff_Sink_ClearPending(void)
 399:Generated_Source\PSoC4/ISR_TurnOff_Sink.c **** {
 500              		.loc 1 399 0
 501              		.cfi_startproc
 502              		@ args = 0, pretend = 0, frame = 0
 503              		@ frame_needed = 1, uses_anonymous_args = 0
 504 0000 80B5     		push	{r7, lr}
 505              		.cfi_def_cfa_offset 8
 506              		.cfi_offset 7, -8
 507              		.cfi_offset 14, -4
 508 0002 00AF     		add	r7, sp, #0
 509              		.cfi_def_cfa_register 7
 400:Generated_Source\PSoC4/ISR_TurnOff_Sink.c ****     *ISR_TurnOff_Sink_INTC_CLR_PD = ISR_TurnOff_Sink__INTC_MASK;
 510              		.loc 1 400 0
 511 0004 024B     		ldr	r3, .L37
ARM GAS  C:\Users\Lars\AppData\Local\Temp\ccGZDN8v.s 			page 17


 512 0006 0122     		movs	r2, #1
 513 0008 1A60     		str	r2, [r3]
 401:Generated_Source\PSoC4/ISR_TurnOff_Sink.c **** }
 514              		.loc 1 401 0
 515 000a C046     		nop
 516 000c BD46     		mov	sp, r7
 517              		@ sp needed
 518 000e 80BD     		pop	{r7, pc}
 519              	.L38:
 520              		.align	2
 521              	.L37:
 522 0010 80E200E0 		.word	-536812928
 523              		.cfi_endproc
 524              	.LFE44:
 525              		.size	ISR_TurnOff_Sink_ClearPending, .-ISR_TurnOff_Sink_ClearPending
 526              		.text
 527              	.Letext0:
 528              		.file 2 "Generated_Source\\PSoC4/cytypes.h"