ARM GAS  C:\Users\Lars\AppData\Local\Temp\ccsA7HY5.s 			page 1


   1              		.syntax unified
   2              		.cpu cortex-m0
   3              		.fpu softvfp
   4              		.eabi_attribute 20, 1
   5              		.eabi_attribute 21, 1
   6              		.eabi_attribute 23, 3
   7              		.eabi_attribute 24, 1
   8              		.eabi_attribute 25, 1
   9              		.eabi_attribute 26, 1
  10              		.eabi_attribute 30, 6
  11              		.eabi_attribute 34, 0
  12              		.eabi_attribute 18, 4
  13              		.thumb
  14              		.syntax unified
  15              		.file	"myspi.c"
  16              		.text
  17              	.Ltext0:
  18              		.cfi_sections	.debug_frame
  19              		.comm	SPI_Temp_Reg,4,4
  20              		.comm	SPI_Status_Reg,1,1
  21              		.comm	SPI_RXflag,1,1
  22              		.comm	SPI_TXflag,1,1
  23              		.comm	spiRxBuffer,128,4
  24              		.comm	spiTxBuffer,128,4
  25              		.section	.text.initializeSPIInterface,"ax",%progbits
  26              		.align	2
  27              		.global	initializeSPIInterface
  28              		.code	16
  29              		.thumb_func
  30              		.type	initializeSPIInterface, %function
  31              	initializeSPIInterface:
  32              	.LFB32:
  33              		.file 1 "myspi.c"
   1:myspi.c       **** /*******************************************************************************
   2:myspi.c       **** * File Name: myspi.c
   3:myspi.c       **** * Version 1.0
   4:myspi.c       **** *
   5:myspi.c       **** * Description:
   6:myspi.c       **** *
   7:myspi.c       **** * Note: none
   8:myspi.c       **** *
   9:myspi.c       **** ********************************************************************************/
  10:myspi.c       **** 
  11:myspi.c       **** #include "myspi.h"
  12:myspi.c       **** 
  13:myspi.c       **** volatile int32 SPI_Temp_Reg;
  14:myspi.c       **** volatile int8 SPI_Status_Reg;
  15:myspi.c       **** 
  16:myspi.c       **** uint8 SPI_RXflag;
  17:myspi.c       **** uint8 SPI_TXflag;
  18:myspi.c       **** uint8 spiRxBuffer[128];
  19:myspi.c       **** uint8 spiTxBuffer[128];
  20:myspi.c       **** 
  21:myspi.c       **** /********************************************************************************
  22:myspi.c       **** *   Function Definitions
  23:myspi.c       **** ********************************************************************************/
  24:myspi.c       **** 
ARM GAS  C:\Users\Lars\AppData\Local\Temp\ccsA7HY5.s 			page 2


  25:myspi.c       **** /********************************************************************************** 
  26:myspi.c       **** * Function Name: initializeSPIInterface
  27:myspi.c       **** ***********************************************************************************
  28:myspi.c       **** *
  29:myspi.c       **** * Summary:
  30:myspi.c       **** *  Initialize the SPI interface for communication with master 
  31:myspi.c       **** 
  32:myspi.c       **** * Parameters: none 
  33:myspi.c       **** *
  34:myspi.c       **** * Return: none
  35:myspi.c       **** * 
  36:myspi.c       **** *************************************************************************************/
  37:myspi.c       **** void initializeSPIInterface(void)
  38:myspi.c       **** {    
  34              		.loc 1 38 0
  35              		.cfi_startproc
  36              		@ args = 0, pretend = 0, frame = 0
  37              		@ frame_needed = 1, uses_anonymous_args = 0
  38 0000 80B5     		push	{r7, lr}
  39              		.cfi_def_cfa_offset 8
  40              		.cfi_offset 7, -8
  41              		.cfi_offset 14, -4
  42 0002 00AF     		add	r7, sp, #0
  43              		.cfi_def_cfa_register 7
  39:myspi.c       ****     uint8 status;
  40:myspi.c       ****     uint8 nBytes;
  41:myspi.c       ****     
  42:myspi.c       ****     SPIS_Start(); //Starts the SPI peripheral and enables the RX and TX Interrupts
  44              		.loc 1 42 0
  45 0004 FFF7FEFF 		bl	SPIS_Start
  43:myspi.c       ****     SPI_RXflag = 0;
  46              		.loc 1 43 0
  47 0008 094B     		ldr	r3, .L2
  48 000a 0022     		movs	r2, #0
  49 000c 1A70     		strb	r2, [r3]
  44:myspi.c       ****     SPI_TXflag = 0;
  50              		.loc 1 44 0
  51 000e 094B     		ldr	r3, .L2+4
  52 0010 0022     		movs	r2, #0
  53 0012 1A70     		strb	r2, [r3]
  45:myspi.c       ****     SPIS_EnableInt();
  54              		.loc 1 45 0
  55 0014 0B20     		movs	r0, #11
  56 0016 FFF7FEFF 		bl	CyIntEnable
  46:myspi.c       ****     SPIS_SetRxInterruptMode(SPIS_INTR_RX_NOT_EMPTY);
  57              		.loc 1 46 0
  58 001a 074B     		ldr	r3, .L2+8
  59 001c 0422     		movs	r2, #4
  60 001e 1A60     		str	r2, [r3]
  47:myspi.c       ****     SPIS_SpiUartClearTxBuffer(); 
  61              		.loc 1 47 0
  62 0020 FFF7FEFF 		bl	SPIS_SpiUartClearTxBuffer
  48:myspi.c       ****     SPIS_SpiUartClearRxBuffer(); 
  63              		.loc 1 48 0
  64 0024 FFF7FEFF 		bl	SPIS_SpiUartClearRxBuffer
  49:myspi.c       ****  
  50:myspi.c       **** }
ARM GAS  C:\Users\Lars\AppData\Local\Temp\ccsA7HY5.s 			page 3


  65              		.loc 1 50 0
  66 0028 C046     		nop
  67 002a BD46     		mov	sp, r7
  68              		@ sp needed
  69 002c 80BD     		pop	{r7, pc}
  70              	.L3:
  71 002e C046     		.align	2
  72              	.L2:
  73 0030 00000000 		.word	SPI_RXflag
  74 0034 00000000 		.word	SPI_TXflag
  75 0038 C80F0740 		.word	1074204616
  76              		.cfi_endproc
  77              	.LFE32:
  78              		.size	initializeSPIInterface, .-initializeSPIInterface
  79              		.section	.text.setSPITempReg,"ax",%progbits
  80              		.align	2
  81              		.global	setSPITempReg
  82              		.code	16
  83              		.thumb_func
  84              		.type	setSPITempReg, %function
  85              	setSPITempReg:
  86              	.LFB33:
  51:myspi.c       **** 
  52:myspi.c       **** /********************************************************************************** 
  53:myspi.c       **** * Function Name: setSPITempReg
  54:myspi.c       **** ***********************************************************************************
  55:myspi.c       **** *
  56:myspi.c       **** * Summary:
  57:myspi.c       **** *  Puts the conversion result of the adc in the temperature register
  58:myspi.c       **** 
  59:myspi.c       **** * Parameters:  
  60:myspi.c       **** *  intrHigh: high byte before radix point
  61:myspi.c       **** *  intrLow:  low byte before radix point
  62:myspi.c       **** *  fracHigh: high byte after radix point
  63:myspi.c       **** *  fracLow:  low byte before radix point
  64:myspi.c       **** *
  65:myspi.c       **** * Return: none
  66:myspi.c       **** * 
  67:myspi.c       **** *************************************************************************************/
  68:myspi.c       **** void setSPITempReg(uint8 intrHigh, uint8 intrLow, uint8 fracHigh, uint8 fracLow)
  69:myspi.c       **** {
  87              		.loc 1 69 0
  88              		.cfi_startproc
  89              		@ args = 0, pretend = 0, frame = 8
  90              		@ frame_needed = 1, uses_anonymous_args = 0
  91 0000 B0B5     		push	{r4, r5, r7, lr}
  92              		.cfi_def_cfa_offset 16
  93              		.cfi_offset 4, -16
  94              		.cfi_offset 5, -12
  95              		.cfi_offset 7, -8
  96              		.cfi_offset 14, -4
  97 0002 82B0     		sub	sp, sp, #8
  98              		.cfi_def_cfa_offset 24
  99 0004 00AF     		add	r7, sp, #0
 100              		.cfi_def_cfa_register 7
 101 0006 0500     		movs	r5, r0
 102 0008 0C00     		movs	r4, r1
ARM GAS  C:\Users\Lars\AppData\Local\Temp\ccsA7HY5.s 			page 4


 103 000a 1000     		movs	r0, r2
 104 000c 1900     		movs	r1, r3
 105 000e FB1D     		adds	r3, r7, #7
 106 0010 2A1C     		adds	r2, r5, #0
 107 0012 1A70     		strb	r2, [r3]
 108 0014 BB1D     		adds	r3, r7, #6
 109 0016 221C     		adds	r2, r4, #0
 110 0018 1A70     		strb	r2, [r3]
 111 001a 7B1D     		adds	r3, r7, #5
 112 001c 021C     		adds	r2, r0, #0
 113 001e 1A70     		strb	r2, [r3]
 114 0020 3B1D     		adds	r3, r7, #4
 115 0022 0A1C     		adds	r2, r1, #0
 116 0024 1A70     		strb	r2, [r3]
  70:myspi.c       ****     SPI_Temp_Reg = (intrHigh << 24u | intrLow << 16u | fracHigh << 8u | fracLow << 0u);
 117              		.loc 1 70 0
 118 0026 FB1D     		adds	r3, r7, #7
 119 0028 1B78     		ldrb	r3, [r3]
 120 002a 1A06     		lsls	r2, r3, #24
 121 002c BB1D     		adds	r3, r7, #6
 122 002e 1B78     		ldrb	r3, [r3]
 123 0030 1B04     		lsls	r3, r3, #16
 124 0032 1A43     		orrs	r2, r3
 125 0034 7B1D     		adds	r3, r7, #5
 126 0036 1B78     		ldrb	r3, [r3]
 127 0038 1B02     		lsls	r3, r3, #8
 128 003a 1A43     		orrs	r2, r3
 129 003c 3B1D     		adds	r3, r7, #4
 130 003e 1B78     		ldrb	r3, [r3]
 131 0040 1A43     		orrs	r2, r3
 132 0042 034B     		ldr	r3, .L5
 133 0044 1A60     		str	r2, [r3]
  71:myspi.c       **** }
 134              		.loc 1 71 0
 135 0046 C046     		nop
 136 0048 BD46     		mov	sp, r7
 137 004a 02B0     		add	sp, sp, #8
 138              		@ sp needed
 139 004c B0BD     		pop	{r4, r5, r7, pc}
 140              	.L6:
 141 004e C046     		.align	2
 142              	.L5:
 143 0050 00000000 		.word	SPI_Temp_Reg
 144              		.cfi_endproc
 145              	.LFE33:
 146              		.size	setSPITempReg, .-setSPITempReg
 147              		.section	.text.SPIS_SPI_UART_ISR_ExitCallback,"ax",%progbits
 148              		.align	2
 149              		.global	SPIS_SPI_UART_ISR_ExitCallback
 150              		.code	16
 151              		.thumb_func
 152              		.type	SPIS_SPI_UART_ISR_ExitCallback, %function
 153              	SPIS_SPI_UART_ISR_ExitCallback:
 154              	.LFB34:
  72:myspi.c       **** 
  73:myspi.c       **** /********************************************************************************** 
  74:myspi.c       **** * Function Name: SPIS_SPI_UART_ISR_ExitCallback
ARM GAS  C:\Users\Lars\AppData\Local\Temp\ccsA7HY5.s 			page 5


  75:myspi.c       **** ***********************************************************************************
  76:myspi.c       **** *
  77:myspi.c       **** * Summary:
  78:myspi.c       **** *  Callback function when a byte was received or transmitted over the SPI interface
  79:myspi.c       **** 
  80:myspi.c       **** * Parameters: none 
  81:myspi.c       **** *
  82:myspi.c       **** * Return: none
  83:myspi.c       **** * 
  84:myspi.c       **** *************************************************************************************/
  85:myspi.c       **** void SPIS_SPI_UART_ISR_ExitCallback(void)
  86:myspi.c       **** {
 155              		.loc 1 86 0
 156              		.cfi_startproc
 157              		@ args = 0, pretend = 0, frame = 8
 158              		@ frame_needed = 1, uses_anonymous_args = 0
 159 0000 80B5     		push	{r7, lr}
 160              		.cfi_def_cfa_offset 8
 161              		.cfi_offset 7, -8
 162              		.cfi_offset 14, -4
 163 0002 82B0     		sub	sp, sp, #8
 164              		.cfi_def_cfa_offset 16
 165 0004 00AF     		add	r7, sp, #0
 166              		.cfi_def_cfa_register 7
  87:myspi.c       ****     uint8 status;
  88:myspi.c       ****     uint8 nBytes;
  89:myspi.c       ****     
  90:myspi.c       ****     //RX ISR
  91:myspi.c       ****     status = SPIS_GetInterruptCause();
 167              		.loc 1 91 0
 168 0006 354B     		ldr	r3, .L11
 169 0008 1A68     		ldr	r2, [r3]
 170 000a FB1D     		adds	r3, r7, #7
 171 000c 1A70     		strb	r2, [r3]
  92:myspi.c       ****     if(status == SPIS_INTR_CAUSE_RX)
 172              		.loc 1 92 0
 173 000e FB1D     		adds	r3, r7, #7
 174 0010 1B78     		ldrb	r3, [r3]
 175 0012 082B     		cmp	r3, #8
 176 0014 5BD1     		bne	.L8
  93:myspi.c       ****     {
  94:myspi.c       ****         spiRxBuffer[0] = SPIS_SpiUartReadRxData();
 177              		.loc 1 94 0
 178 0016 FFF7FEFF 		bl	SPIS_SpiUartReadRxData
 179 001a 0300     		movs	r3, r0
 180 001c DAB2     		uxtb	r2, r3
 181 001e 304B     		ldr	r3, .L11+4
 182 0020 1A70     		strb	r2, [r3]
  95:myspi.c       ****        
  96:myspi.c       ****         nBytes = SPIS_SpiUartGetRxBufferSize();
 183              		.loc 1 96 0
 184 0022 FFF7FEFF 		bl	SPIS_SpiUartGetRxBufferSize
 185 0026 0200     		movs	r2, r0
 186 0028 BB1D     		adds	r3, r7, #6
 187 002a 1A70     		strb	r2, [r3]
  97:myspi.c       ****         status = SPIS_GetSlaveInterruptSourceMasked();
 188              		.loc 1 97 0
ARM GAS  C:\Users\Lars\AppData\Local\Temp\ccsA7HY5.s 			page 6


 189 002c 2D4B     		ldr	r3, .L11+8
 190 002e 1A68     		ldr	r2, [r3]
 191 0030 FB1D     		adds	r3, r7, #7
 192 0032 1A70     		strb	r2, [r3]
  98:myspi.c       ****         status = SPIS_GetRxInterruptMode();
 193              		.loc 1 98 0
 194 0034 2C4B     		ldr	r3, .L11+12
 195 0036 1A68     		ldr	r2, [r3]
 196 0038 FB1D     		adds	r3, r7, #7
 197 003a 1A70     		strb	r2, [r3]
  99:myspi.c       ****         
 100:myspi.c       ****         if(spiRxBuffer[0] == REG_ADDRESS_TEMP )
 198              		.loc 1 100 0
 199 003c 284B     		ldr	r3, .L11+4
 200 003e 1B78     		ldrb	r3, [r3]
 201 0040 A12B     		cmp	r3, #161
 202 0042 2ED1     		bne	.L9
 101:myspi.c       ****         {       
 102:myspi.c       ****             SPIS_SpiUartClearTxBuffer(); 
 203              		.loc 1 102 0
 204 0044 FFF7FEFF 		bl	SPIS_SpiUartClearTxBuffer
 103:myspi.c       **** 
 104:myspi.c       ****             spiTxBuffer[0]   = (SPI_Temp_Reg & (0xFF<<24u)) >> 24u; 
 205              		.loc 1 104 0
 206 0048 284B     		ldr	r3, .L11+16
 207 004a 1B68     		ldr	r3, [r3]
 208 004c 1B0E     		lsrs	r3, r3, #24
 209 004e 1B06     		lsls	r3, r3, #24
 210 0050 1B16     		asrs	r3, r3, #24
 211 0052 DAB2     		uxtb	r2, r3
 212 0054 264B     		ldr	r3, .L11+20
 213 0056 1A70     		strb	r2, [r3]
 105:myspi.c       ****             spiTxBuffer[1]   = (SPI_Temp_Reg & (0xFF<<16u)) >> 16u; 
 214              		.loc 1 105 0
 215 0058 244B     		ldr	r3, .L11+16
 216 005a 1A68     		ldr	r2, [r3]
 217 005c FF23     		movs	r3, #255
 218 005e 1B04     		lsls	r3, r3, #16
 219 0060 1340     		ands	r3, r2
 220 0062 1B14     		asrs	r3, r3, #16
 221 0064 DAB2     		uxtb	r2, r3
 222 0066 224B     		ldr	r3, .L11+20
 223 0068 5A70     		strb	r2, [r3, #1]
 106:myspi.c       ****             spiTxBuffer[2]   = (SPI_Temp_Reg & (0xFF<<8u)) >> 8u; 
 224              		.loc 1 106 0
 225 006a 204B     		ldr	r3, .L11+16
 226 006c 1A68     		ldr	r2, [r3]
 227 006e FF23     		movs	r3, #255
 228 0070 1B02     		lsls	r3, r3, #8
 229 0072 1340     		ands	r3, r2
 230 0074 1B12     		asrs	r3, r3, #8
 231 0076 DAB2     		uxtb	r2, r3
 232 0078 1D4B     		ldr	r3, .L11+20
 233 007a 9A70     		strb	r2, [r3, #2]
 107:myspi.c       ****             spiTxBuffer[3]   = (SPI_Temp_Reg & (0xFF<<0u));
 234              		.loc 1 107 0
 235 007c 1B4B     		ldr	r3, .L11+16
ARM GAS  C:\Users\Lars\AppData\Local\Temp\ccsA7HY5.s 			page 7


 236 007e 1B68     		ldr	r3, [r3]
 237 0080 DAB2     		uxtb	r2, r3
 238 0082 1B4B     		ldr	r3, .L11+20
 239 0084 DA70     		strb	r2, [r3, #3]
 108:myspi.c       **** 
 109:myspi.c       ****             SPIS_SpiUartPutArray((uint8*)spiTxBuffer, 4);     
 240              		.loc 1 109 0
 241 0086 1A4B     		ldr	r3, .L11+20
 242 0088 0421     		movs	r1, #4
 243 008a 1800     		movs	r0, r3
 244 008c FFF7FEFF 		bl	SPIS_SpiUartPutArray
 110:myspi.c       ****            __SPI_CLEAR_STATUS_BIT(STATUS_CONVERSION_DONE);
 245              		.loc 1 110 0
 246 0090 184B     		ldr	r3, .L11+24
 247 0092 1B78     		ldrb	r3, [r3]
 248 0094 5BB2     		sxtb	r3, r3
 249 0096 0122     		movs	r2, #1
 250 0098 9343     		bics	r3, r2
 251 009a 5AB2     		sxtb	r2, r3
 252 009c 154B     		ldr	r3, .L11+24
 253 009e 1A70     		strb	r2, [r3]
 254 00a0 10E0     		b	.L10
 255              	.L9:
 111:myspi.c       ****         }   
 112:myspi.c       ****         else if(spiRxBuffer[0] == REG_ADDRESS_STATUS )
 256              		.loc 1 112 0
 257 00a2 0F4B     		ldr	r3, .L11+4
 258 00a4 1B78     		ldrb	r3, [r3]
 259 00a6 A02B     		cmp	r3, #160
 260 00a8 0CD1     		bne	.L10
 113:myspi.c       ****         {
 114:myspi.c       ****             SPIS_SpiUartClearTxBuffer(); 
 261              		.loc 1 114 0
 262 00aa FFF7FEFF 		bl	SPIS_SpiUartClearTxBuffer
 115:myspi.c       ****             
 116:myspi.c       ****           
 117:myspi.c       ****             spiTxBuffer[0] = SPI_Status_Reg;
 263              		.loc 1 117 0
 264 00ae 114B     		ldr	r3, .L11+24
 265 00b0 1B78     		ldrb	r3, [r3]
 266 00b2 5BB2     		sxtb	r3, r3
 267 00b4 DAB2     		uxtb	r2, r3
 268 00b6 0E4B     		ldr	r3, .L11+20
 269 00b8 1A70     		strb	r2, [r3]
 118:myspi.c       ****             
 119:myspi.c       ****             SPIS_SpiUartPutArray((uint8*)spiTxBuffer, 1);     
 270              		.loc 1 119 0
 271 00ba 0D4B     		ldr	r3, .L11+20
 272 00bc 0121     		movs	r1, #1
 273 00be 1800     		movs	r0, r3
 274 00c0 FFF7FEFF 		bl	SPIS_SpiUartPutArray
 275              	.L10:
 120:myspi.c       ****         }
 121:myspi.c       ****         
 122:myspi.c       ****         SPIS_SpiUartClearRxBuffer(); 
 276              		.loc 1 122 0
 277 00c4 FFF7FEFF 		bl	SPIS_SpiUartClearRxBuffer
ARM GAS  C:\Users\Lars\AppData\Local\Temp\ccsA7HY5.s 			page 8


 123:myspi.c       ****         SPIS_ClearRxInterruptSource(SPIS_INTR_RX_NOT_EMPTY); 
 278              		.loc 1 123 0
 279 00c8 0B4B     		ldr	r3, .L11+28
 280 00ca 0422     		movs	r2, #4
 281 00cc 1A60     		str	r2, [r3]
 282              	.L8:
 124:myspi.c       ****     }
 125:myspi.c       ****   
 126:myspi.c       ****     
 127:myspi.c       ****     status = 0;
 283              		.loc 1 127 0
 284 00ce FB1D     		adds	r3, r7, #7
 285 00d0 0022     		movs	r2, #0
 286 00d2 1A70     		strb	r2, [r3]
 128:myspi.c       **** }
 287              		.loc 1 128 0
 288 00d4 C046     		nop
 289 00d6 BD46     		mov	sp, r7
 290 00d8 02B0     		add	sp, sp, #8
 291              		@ sp needed
 292 00da 80BD     		pop	{r7, pc}
 293              	.L12:
 294              		.align	2
 295              	.L11:
 296 00dc 000E0740 		.word	1074204160
 297 00e0 00000000 		.word	spiRxBuffer
 298 00e4 4C0F0740 		.word	1074204492
 299 00e8 C80F0740 		.word	1074204616
 300 00ec 00000000 		.word	SPI_Temp_Reg
 301 00f0 00000000 		.word	spiTxBuffer
 302 00f4 00000000 		.word	SPI_Status_Reg
 303 00f8 C00F0740 		.word	1074204608
 304              		.cfi_endproc
 305              	.LFE34:
 306              		.size	SPIS_SPI_UART_ISR_ExitCallback, .-SPIS_SPI_UART_ISR_ExitCallback
 307              		.text
 308              	.Letext0:
 309              		.file 2 "Generated_Source\\PSoC4/cytypes.h"