ARM GAS  C:\Users\Lars\AppData\Local\Temp\ccXFD81U.s 			page 1


   1              		.syntax unified
   2              		.cpu cortex-m0
   3              		.fpu softvfp
   4              		.eabi_attribute 20, 1
   5              		.eabi_attribute 21, 1
   6              		.eabi_attribute 23, 3
   7              		.eabi_attribute 24, 1
   8              		.eabi_attribute 25, 1
   9              		.eabi_attribute 26, 1
  10              		.eabi_attribute 30, 6
  11              		.eabi_attribute 34, 0
  12              		.eabi_attribute 18, 4
  13              		.thumb
  14              		.syntax unified
  15              		.file	"SingleDiode.c"
  16              		.text
  17              	.Ltext0:
  18              		.cfi_sections	.debug_frame
  19              		.global	ADCOffset
  20              		.bss
  21              		.align	1
  22              		.type	ADCOffset, %object
  23              		.size	ADCOffset, 2
  24              	ADCOffset:
  25 0000 0000     		.space	2
  26              		.section	.text.getSystemOffset,"ax",%progbits
  27              		.align	2
  28              		.global	getSystemOffset
  29              		.code	16
  30              		.thumb_func
  31              		.type	getSystemOffset, %function
  32              	getSystemOffset:
  33              	.LFB32:
  34              		.file 1 "SingleDiode.c"
   1:SingleDiode.c **** /*******************************************************************************
   2:SingleDiode.c **** * File Name: SingleDiode.c
   3:SingleDiode.c **** * Version 1.0
   4:SingleDiode.c **** *
   5:SingleDiode.c **** * Description:
   6:SingleDiode.c **** *  This file provides the API source code for single diode temperature measurement. 
   7:SingleDiode.c **** *
   8:SingleDiode.c **** * Note: none
   9:SingleDiode.c **** *
  10:SingleDiode.c **** ********************************************************************************
  11:SingleDiode.c **** * Copyright 2008-2013, Cypress Semiconductor Corporation.  All rights reserved.
  12:SingleDiode.c **** * You may use this file only in accordance with the license, terms, conditions,
  13:SingleDiode.c **** * disclaimers, and limitations in the end user license agreement accompanying
  14:SingleDiode.c **** * the software package with which this file was provided.
  15:SingleDiode.c **** ********************************************************************************/
  16:SingleDiode.c **** 
  17:SingleDiode.c **** /* Include all generated header files  */
  18:SingleDiode.c **** #include <device.h>  
  19:SingleDiode.c ****  /* Included for using logarithm function */
  20:SingleDiode.c **** #include <math.h>   
  21:SingleDiode.c ****  /* Included the single diode header file */
  22:SingleDiode.c **** #include <SingleDiode.h>
  23:SingleDiode.c **** 
ARM GAS  C:\Users\Lars\AppData\Local\Temp\ccXFD81U.s 			page 2


  24:SingleDiode.c **** /* Opamps and ADC offset at delta Vbe measurement */
  25:SingleDiode.c **** volatile int16 ADCOffset = 0; 
  26:SingleDiode.c **** extern volatile int32 SPI_Temp_Reg;
  27:SingleDiode.c **** extern volatile int8 SPI_Status_Reg;
  28:SingleDiode.c **** 
  29:SingleDiode.c **** /********************************************************************************** 
  30:SingleDiode.c **** * Function Name: GetSystemOffset
  31:SingleDiode.c **** ***********************************************************************************
  32:SingleDiode.c **** *
  33:SingleDiode.c **** * Summary:
  34:SingleDiode.c **** *  Get the total offset caused by opamps and ADC 
  35:SingleDiode.c **** * Parameters:  
  36:SingleDiode.c **** * number: the averaging number for noise reduction
  37:SingleDiode.c **** *
  38:SingleDiode.c **** * Return: 
  39:SingleDiode.c **** * offset caused by both ADC and opamps are returned in this fucntion as: "Adc_offset"
  40:SingleDiode.c **** *************************************************************************************/
  41:SingleDiode.c **** 
  42:SingleDiode.c **** int32 getSystemOffset(int8 number)
  43:SingleDiode.c **** {
  35              		.loc 1 43 0
  36              		.cfi_startproc
  37              		@ args = 0, pretend = 0, frame = 16
  38              		@ frame_needed = 1, uses_anonymous_args = 0
  39 0000 80B5     		push	{r7, lr}
  40              		.cfi_def_cfa_offset 8
  41              		.cfi_offset 7, -8
  42              		.cfi_offset 14, -4
  43 0002 84B0     		sub	sp, sp, #16
  44              		.cfi_def_cfa_offset 24
  45 0004 00AF     		add	r7, sp, #0
  46              		.cfi_def_cfa_register 7
  47 0006 0200     		movs	r2, r0
  48 0008 FB1D     		adds	r3, r7, #7
  49 000a 1A70     		strb	r2, [r3]
  44:SingleDiode.c **** 	uint8 loop = 0;	
  50              		.loc 1 44 0
  51 000c 0F23     		movs	r3, #15
  52 000e FB18     		adds	r3, r7, r3
  53 0010 0022     		movs	r2, #0
  54 0012 1A70     		strb	r2, [r3]
  45:SingleDiode.c **** 	int32 Offset = 0;
  55              		.loc 1 45 0
  56 0014 0023     		movs	r3, #0
  57 0016 BB60     		str	r3, [r7, #8]
  46:SingleDiode.c **** 	 /*Set the ADC multiplexer to short OAMPS to get ADC + Amplifier Offset */
  47:SingleDiode.c **** 	//AMux_High_Select(AMUX_HIGH_OFFSET);	
  48:SingleDiode.c **** 	//AMux_Low_Select (AMUX_LOW_OFFSET); 
  49:SingleDiode.c ****     
  50:SingleDiode.c **** 	/*add some delay to makes sure the last conversion is complete*/
  51:SingleDiode.c **** 	CyDelayUs(30); 
  58              		.loc 1 51 0
  59 0018 1E20     		movs	r0, #30
  60 001a FFF7FEFF 		bl	CyDelayUs
  52:SingleDiode.c **** 	/*Clear the bit for that last reading that was started before you turned off the ADC*/
  53:SingleDiode.c **** 	ADC_SAR_SAR_INTR_REG = ADC_SAR_EOS_MASK; 
  61              		.loc 1 53 0
ARM GAS  C:\Users\Lars\AppData\Local\Temp\ccXFD81U.s 			page 3


  62 001e 154B     		ldr	r3, .L5
  63 0020 0122     		movs	r2, #1
  64 0022 1A60     		str	r2, [r3]
  54:SingleDiode.c **** 
  55:SingleDiode.c **** 	for(loop = 0; loop < number; loop++)
  65              		.loc 1 55 0
  66 0024 0F23     		movs	r3, #15
  67 0026 FB18     		adds	r3, r7, r3
  68 0028 0022     		movs	r2, #0
  69 002a 1A70     		strb	r2, [r3]
  70 002c 15E0     		b	.L2
  71              	.L3:
  56:SingleDiode.c ****     {    
  57:SingleDiode.c ****         ADC_SAR_StartConvert();
  72              		.loc 1 57 0 discriminator 3
  73 002e FFF7FEFF 		bl	ADC_SAR_StartConvert
  58:SingleDiode.c ****         ADC_SAR_IsEndConversion(ADC_SAR_WAIT_FOR_RESULT);
  74              		.loc 1 58 0 discriminator 3
  75 0032 0220     		movs	r0, #2
  76 0034 FFF7FEFF 		bl	ADC_SAR_IsEndConversion
  59:SingleDiode.c ****         Offset = Offset +  ADC_SAR_GetResult16(0); 
  77              		.loc 1 59 0 discriminator 3
  78 0038 0020     		movs	r0, #0
  79 003a FFF7FEFF 		bl	ADC_SAR_GetResult16
  80 003e 0300     		movs	r3, r0
  81 0040 1A00     		movs	r2, r3
  82 0042 BB68     		ldr	r3, [r7, #8]
  83 0044 9B18     		adds	r3, r3, r2
  84 0046 BB60     		str	r3, [r7, #8]
  60:SingleDiode.c **** 		ADC_SAR_StopConvert();
  85              		.loc 1 60 0 discriminator 3
  86 0048 FFF7FEFF 		bl	ADC_SAR_StopConvert
  55:SingleDiode.c ****     {    
  87              		.loc 1 55 0 discriminator 3
  88 004c 0F23     		movs	r3, #15
  89 004e FB18     		adds	r3, r7, r3
  90 0050 1A78     		ldrb	r2, [r3]
  91 0052 0F23     		movs	r3, #15
  92 0054 FB18     		adds	r3, r7, r3
  93 0056 0132     		adds	r2, r2, #1
  94 0058 1A70     		strb	r2, [r3]
  95              	.L2:
  55:SingleDiode.c ****     {    
  96              		.loc 1 55 0 is_stmt 0 discriminator 1
  97 005a 0F23     		movs	r3, #15
  98 005c FB18     		adds	r3, r7, r3
  99 005e 1A78     		ldrb	r2, [r3]
 100 0060 FB1D     		adds	r3, r7, #7
 101 0062 1B78     		ldrb	r3, [r3]
 102 0064 5BB2     		sxtb	r3, r3
 103 0066 9A42     		cmp	r2, r3
 104 0068 E1DB     		blt	.L3
  61:SingleDiode.c ****     } 
  62:SingleDiode.c **** 	
  63:SingleDiode.c **** 	return (Offset);
 105              		.loc 1 63 0 is_stmt 1
 106 006a BB68     		ldr	r3, [r7, #8]
ARM GAS  C:\Users\Lars\AppData\Local\Temp\ccXFD81U.s 			page 4


  64:SingleDiode.c **** }
 107              		.loc 1 64 0
 108 006c 1800     		movs	r0, r3
 109 006e BD46     		mov	sp, r7
 110 0070 04B0     		add	sp, sp, #16
 111              		@ sp needed
 112 0072 80BD     		pop	{r7, pc}
 113              	.L6:
 114              		.align	2
 115              	.L5:
 116 0074 10021A40 		.word	1075446288
 117              		.cfi_endproc
 118              	.LFE32:
 119              		.size	getSystemOffset, .-getSystemOffset
 120              		.section	.text.initializeDiodeMeasurement,"ax",%progbits
 121              		.align	2
 122              		.global	initializeDiodeMeasurement
 123              		.code	16
 124              		.thumb_func
 125              		.type	initializeDiodeMeasurement, %function
 126              	initializeDiodeMeasurement:
 127              	.LFB33:
  65:SingleDiode.c **** 
  66:SingleDiode.c **** 
  67:SingleDiode.c **** 
  68:SingleDiode.c **** 
  69:SingleDiode.c **** /*************************************************************************************** 
  70:SingleDiode.c **** * Function Name: InitializeDiodeMeasurement
  71:SingleDiode.c **** ****************************************************************************************
  72:SingleDiode.c **** *
  73:SingleDiode.c **** * Summary:
  74:SingleDiode.c **** *  Initializes the components required for temperature measurement and also
  75:SingleDiode.c **** *  and finds the system offset  
  76:SingleDiode.c **** *
  77:SingleDiode.c **** * Parameters:  
  78:SingleDiode.c **** *  None
  79:SingleDiode.c **** *
  80:SingleDiode.c **** * Return: 
  81:SingleDiode.c **** *  None
  82:SingleDiode.c **** *
  83:SingleDiode.c **** *
  84:SingleDiode.c **** ******************************************************************************************/
  85:SingleDiode.c **** void  initializeDiodeMeasurement()
  86:SingleDiode.c **** {
 128              		.loc 1 86 0
 129              		.cfi_startproc
 130              		@ args = 0, pretend = 0, frame = 0
 131              		@ frame_needed = 1, uses_anonymous_args = 0
 132 0000 80B5     		push	{r7, lr}
 133              		.cfi_def_cfa_offset 8
 134              		.cfi_offset 7, -8
 135              		.cfi_offset 14, -4
 136 0002 00AF     		add	r7, sp, #0
 137              		.cfi_def_cfa_register 7
  87:SingleDiode.c ****     /* Start the components */
  88:SingleDiode.c ****     ADC_SAR_Start();
 138              		.loc 1 88 0
ARM GAS  C:\Users\Lars\AppData\Local\Temp\ccXFD81U.s 			page 5


 139 0004 FFF7FEFF 		bl	ADC_SAR_Start
  89:SingleDiode.c ****     IDAC_Start();
 140              		.loc 1 89 0
 141 0008 FFF7FEFF 		bl	IDAC_Start
  90:SingleDiode.c **** 	Opamp_1_Start();
 142              		.loc 1 90 0
 143 000c FFF7FEFF 		bl	Opamp_1_Start
  91:SingleDiode.c **** 	Opamp_2_Start();
 144              		.loc 1 91 0
 145 0010 FFF7FEFF 		bl	Opamp_2_Start
  92:SingleDiode.c **** 	AMux_High_Start();
 146              		.loc 1 92 0
 147 0014 FFF7FEFF 		bl	AMux_High_Start
  93:SingleDiode.c ****     AMux_Low_Start(); 
 148              		.loc 1 93 0
 149 0018 FFF7FEFF 		bl	AMux_Low_Start
  94:SingleDiode.c ****     SPIS_Start();
 150              		.loc 1 94 0
 151 001c FFF7FEFF 		bl	SPIS_Start
  95:SingleDiode.c **** 	
  96:SingleDiode.c **** 	/* Initial IDAC Calibration */
  97:SingleDiode.c ****     ADCOffset = getSystemOffset(NUM_OF_SAMPLES_CALIB);
 152              		.loc 1 97 0
 153 0020 4020     		movs	r0, #64
 154 0022 FFF7FEFF 		bl	getSystemOffset
 155 0026 0300     		movs	r3, r0
 156 0028 1AB2     		sxth	r2, r3
 157 002a 064B     		ldr	r3, .L8
 158 002c 1A80     		strh	r2, [r3]
  98:SingleDiode.c ****    __SPI_SET_STATUS_BIT(STATUS_CALIBRATION_DONE);
 159              		.loc 1 98 0
 160 002e 064B     		ldr	r3, .L8+4
 161 0030 1B78     		ldrb	r3, [r3]
 162 0032 5BB2     		sxtb	r3, r3
 163 0034 0422     		movs	r2, #4
 164 0036 1343     		orrs	r3, r2
 165 0038 5AB2     		sxtb	r2, r3
 166 003a 034B     		ldr	r3, .L8+4
 167 003c 1A70     		strb	r2, [r3]
  99:SingleDiode.c ****     
 100:SingleDiode.c **** }
 168              		.loc 1 100 0
 169 003e C046     		nop
 170 0040 BD46     		mov	sp, r7
 171              		@ sp needed
 172 0042 80BD     		pop	{r7, pc}
 173              	.L9:
 174              		.align	2
 175              	.L8:
 176 0044 00000000 		.word	ADCOffset
 177 0048 00000000 		.word	SPI_Status_Reg
 178              		.cfi_endproc
 179              	.LFE33:
 180              		.size	initializeDiodeMeasurement, .-initializeDiodeMeasurement
 181              		.global	__aeabi_f2iz
 182              		.global	__aeabi_fmul
 183              		.section	.text.convertVoltageToTemperature,"ax",%progbits
ARM GAS  C:\Users\Lars\AppData\Local\Temp\ccXFD81U.s 			page 6


 184              		.align	2
 185              		.global	convertVoltageToTemperature
 186              		.code	16
 187              		.thumb_func
 188              		.type	convertVoltageToTemperature, %function
 189              	convertVoltageToTemperature:
 190              	.LFB34:
 101:SingleDiode.c **** 
 102:SingleDiode.c **** 
 103:SingleDiode.c **** /******************************************************************************************* 
 104:SingleDiode.c **** * Function Name: convertVoltageToTemperature
 105:SingleDiode.c **** ********************************************************************************************
 106:SingleDiode.c **** *
 107:SingleDiode.c **** * Summary:
 108:SingleDiode.c **** *  Converts the voltage measured with the ADC to a corresponding temperature with a lookuptable
 109:SingleDiode.c **** *
 110:SingleDiode.c **** * Parameters:  
 111:SingleDiode.c **** *  float - voltage 
 112:SingleDiode.c **** *
 113:SingleDiode.c **** * Return: 
 114:SingleDiode.c **** *  float - diode temperature
 115:SingleDiode.c **** *
 116:SingleDiode.c **** *********************************************************************************************/
 117:SingleDiode.c **** float convertVoltageToTemperature(float32 voltage)
 118:SingleDiode.c **** {
 191              		.loc 1 118 0
 192              		.cfi_startproc
 193              		@ args = 0, pretend = 0, frame = 16
 194              		@ frame_needed = 1, uses_anonymous_args = 0
 195 0000 90B5     		push	{r4, r7, lr}
 196              		.cfi_def_cfa_offset 12
 197              		.cfi_offset 4, -12
 198              		.cfi_offset 7, -8
 199              		.cfi_offset 14, -4
 200 0002 85B0     		sub	sp, sp, #20
 201              		.cfi_def_cfa_offset 32
 202 0004 00AF     		add	r7, sp, #0
 203              		.cfi_def_cfa_register 7
 204 0006 7860     		str	r0, [r7, #4]
 119:SingleDiode.c ****     //TODO: LookupTable Calibrationa
 120:SingleDiode.c ****     //TODO: Set the SPI_Temp_Reg
 121:SingleDiode.c ****     
 122:SingleDiode.c ****     /*store the integer part of the diode temperature*/
 123:SingleDiode.c **** 	uint16 intr; 
 124:SingleDiode.c ****     uint8 intrHigh;
 125:SingleDiode.c ****     uint8 intrLow;
 126:SingleDiode.c **** 	/*store the fractional part of the diode temperature*/
 127:SingleDiode.c **** 	uint16 frac; 
 128:SingleDiode.c ****     uint8 fracHigh;
 129:SingleDiode.c ****     uint8 fracLow;
 130:SingleDiode.c ****     
 131:SingleDiode.c ****     intr = (int16)voltage;
 205              		.loc 1 131 0
 206 0008 7868     		ldr	r0, [r7, #4]
 207 000a FFF7FEFF 		bl	__aeabi_f2iz
 208 000e 0300     		movs	r3, r0
 209 0010 1AB2     		sxth	r2, r3
ARM GAS  C:\Users\Lars\AppData\Local\Temp\ccXFD81U.s 			page 7


 210 0012 0E23     		movs	r3, #14
 211 0014 FB18     		adds	r3, r7, r3
 212 0016 1A80     		strh	r2, [r3]
 132:SingleDiode.c **** 	frac = (int16)(voltage*1000)-intr*1000;
 213              		.loc 1 132 0
 214 0018 2249     		ldr	r1, .L12
 215 001a 7868     		ldr	r0, [r7, #4]
 216 001c FFF7FEFF 		bl	__aeabi_fmul
 217 0020 031C     		adds	r3, r0, #0
 218 0022 181C     		adds	r0, r3, #0
 219 0024 FFF7FEFF 		bl	__aeabi_f2iz
 220 0028 0300     		movs	r3, r0
 221 002a 1BB2     		sxth	r3, r3
 222 002c 99B2     		uxth	r1, r3
 223 002e 0E23     		movs	r3, #14
 224 0030 FB18     		adds	r3, r7, r3
 225 0032 1B88     		ldrh	r3, [r3]
 226 0034 1C4A     		ldr	r2, .L12+4
 227 0036 5343     		muls	r3, r2
 228 0038 9AB2     		uxth	r2, r3
 229 003a 0C23     		movs	r3, #12
 230 003c FB18     		adds	r3, r7, r3
 231 003e 8A18     		adds	r2, r1, r2
 232 0040 1A80     		strh	r2, [r3]
 133:SingleDiode.c ****     
 134:SingleDiode.c ****     intrHigh = ((intr & (0xFF << 8)) >> 8);
 233              		.loc 1 134 0
 234 0042 0E23     		movs	r3, #14
 235 0044 FB18     		adds	r3, r7, r3
 236 0046 1B88     		ldrh	r3, [r3]
 237 0048 1B0A     		lsrs	r3, r3, #8
 238 004a 9AB2     		uxth	r2, r3
 239 004c 0B23     		movs	r3, #11
 240 004e FB18     		adds	r3, r7, r3
 241 0050 1A70     		strb	r2, [r3]
 135:SingleDiode.c ****     intrLow = (intr & 0xFF);
 242              		.loc 1 135 0
 243 0052 0A23     		movs	r3, #10
 244 0054 FB18     		adds	r3, r7, r3
 245 0056 0E22     		movs	r2, #14
 246 0058 BA18     		adds	r2, r7, r2
 247 005a 1288     		ldrh	r2, [r2]
 248 005c 1A70     		strb	r2, [r3]
 136:SingleDiode.c ****     fracHigh = ((frac & (0xFF << 8)) >> 8);
 249              		.loc 1 136 0
 250 005e 0C23     		movs	r3, #12
 251 0060 FB18     		adds	r3, r7, r3
 252 0062 1B88     		ldrh	r3, [r3]
 253 0064 1B0A     		lsrs	r3, r3, #8
 254 0066 9AB2     		uxth	r2, r3
 255 0068 0923     		movs	r3, #9
 256 006a FB18     		adds	r3, r7, r3
 257 006c 1A70     		strb	r2, [r3]
 137:SingleDiode.c ****     fracLow = (frac & 0xFF);
 258              		.loc 1 137 0
 259 006e 0823     		movs	r3, #8
 260 0070 FB18     		adds	r3, r7, r3
ARM GAS  C:\Users\Lars\AppData\Local\Temp\ccXFD81U.s 			page 8


 261 0072 0C22     		movs	r2, #12
 262 0074 BA18     		adds	r2, r7, r2
 263 0076 1288     		ldrh	r2, [r2]
 264 0078 1A70     		strb	r2, [r3]
 138:SingleDiode.c ****     
 139:SingleDiode.c ****     setSPITempReg(intrHigh, intrLow, fracHigh, fracLow);
 265              		.loc 1 139 0
 266 007a 0823     		movs	r3, #8
 267 007c FB18     		adds	r3, r7, r3
 268 007e 1C78     		ldrb	r4, [r3]
 269 0080 0923     		movs	r3, #9
 270 0082 FB18     		adds	r3, r7, r3
 271 0084 1A78     		ldrb	r2, [r3]
 272 0086 0A23     		movs	r3, #10
 273 0088 FB18     		adds	r3, r7, r3
 274 008a 1978     		ldrb	r1, [r3]
 275 008c 0B23     		movs	r3, #11
 276 008e FB18     		adds	r3, r7, r3
 277 0090 1878     		ldrb	r0, [r3]
 278 0092 2300     		movs	r3, r4
 279 0094 FFF7FEFF 		bl	setSPITempReg
 140:SingleDiode.c ****     
 141:SingleDiode.c ****     return voltage; //No Conversion so far
 280              		.loc 1 141 0
 281 0098 7B68     		ldr	r3, [r7, #4]
 142:SingleDiode.c **** }
 282              		.loc 1 142 0
 283 009a 181C     		adds	r0, r3, #0
 284 009c BD46     		mov	sp, r7
 285 009e 05B0     		add	sp, sp, #20
 286              		@ sp needed
 287 00a0 90BD     		pop	{r4, r7, pc}
 288              	.L13:
 289 00a2 C046     		.align	2
 290              	.L12:
 291 00a4 00007A44 		.word	1148846080
 292 00a8 18FCFFFF 		.word	-1000
 293              		.cfi_endproc
 294              	.LFE34:
 295              		.size	convertVoltageToTemperature, .-convertVoltageToTemperature
 296              		.global	__aeabi_i2f
 297              		.global	__aeabi_fdiv
 298              		.section	.text.getDiodeTemperature,"ax",%progbits
 299              		.align	2
 300              		.global	getDiodeTemperature
 301              		.code	16
 302              		.thumb_func
 303              		.type	getDiodeTemperature, %function
 304              	getDiodeTemperature:
 305              	.LFB35:
 143:SingleDiode.c **** 
 144:SingleDiode.c **** 
 145:SingleDiode.c **** 
 146:SingleDiode.c **** 
 147:SingleDiode.c **** /******************************************************************************************* 
 148:SingleDiode.c **** * Function Name: GetDiodeTemperature
 149:SingleDiode.c **** ********************************************************************************************
ARM GAS  C:\Users\Lars\AppData\Local\Temp\ccXFD81U.s 			page 9


 150:SingleDiode.c **** *
 151:SingleDiode.c **** * Summary:
 152:SingleDiode.c **** *  Returns the temperature of the transistor diode and the Vbe voltage measured
 153:SingleDiode.c **** *
 154:SingleDiode.c **** * Parameters:  
 155:SingleDiode.c **** *  None
 156:SingleDiode.c **** *
 157:SingleDiode.c **** * Return: 
 158:SingleDiode.c **** *  float - diode temperature
 159:SingleDiode.c **** *
 160:SingleDiode.c **** *********************************************************************************************/
 161:SingleDiode.c **** float getDiodeTemperature(uint8 chan)
 162:SingleDiode.c **** {
 306              		.loc 1 162 0
 307              		.cfi_startproc
 308              		@ args = 0, pretend = 0, frame = 24
 309              		@ frame_needed = 1, uses_anonymous_args = 0
 310 0000 80B5     		push	{r7, lr}
 311              		.cfi_def_cfa_offset 8
 312              		.cfi_offset 7, -8
 313              		.cfi_offset 14, -4
 314 0002 86B0     		sub	sp, sp, #24
 315              		.cfi_def_cfa_offset 32
 316 0004 00AF     		add	r7, sp, #0
 317              		.cfi_def_cfa_register 7
 318 0006 0200     		movs	r2, r0
 319 0008 FB1D     		adds	r3, r7, #7
 320 000a 1A70     		strb	r2, [r3]
 163:SingleDiode.c ****     uint8 loop;
 164:SingleDiode.c ****     int32 Vf_SUM = 0;
 321              		.loc 1 164 0
 322 000c 0023     		movs	r3, #0
 323 000e 3B61     		str	r3, [r7, #16]
 165:SingleDiode.c ****     float32 Vf_Single;
 166:SingleDiode.c ****     float32 diode_temperature;
 167:SingleDiode.c **** 
 168:SingleDiode.c ****   
 169:SingleDiode.c ****     /*Set the ADC multiplexer to measure Voltage over Body Diode*/
 170:SingleDiode.c ****     AMux_High_Select (AMUX_HIGH_DIODE);
 324              		.loc 1 170 0
 325 0010 0120     		movs	r0, #1
 326 0012 FFF7FEFF 		bl	AMux_High_Select
 171:SingleDiode.c ****     AMux_Low_Select (AMUX_LOW_DIODE);
 327              		.loc 1 171 0
 328 0016 0120     		movs	r0, #1
 329 0018 FFF7FEFF 		bl	AMux_Low_Select
 172:SingleDiode.c ****     
 173:SingleDiode.c ****     /*Set the current multiplexer to measure Mosfet 1 of DUT*/
 174:SingleDiode.c **** 	setMultiplexerChan(chan);
 330              		.loc 1 174 0
 331 001c FB1D     		adds	r3, r7, #7
 332 001e 1B78     		ldrb	r3, [r3]
 333 0020 1800     		movs	r0, r3
 334 0022 FFF7FEFF 		bl	setMultiplexerChan
 175:SingleDiode.c ****     turnOnSink();
 335              		.loc 1 175 0
 336 0026 FFF7FEFF 		bl	turnOnSink
ARM GAS  C:\Users\Lars\AppData\Local\Temp\ccXFD81U.s 			page 10


 176:SingleDiode.c ****     __SPI_SET_STATUS_BIT(STATUS_CURRENT_SOURCE_ON);
 337              		.loc 1 176 0
 338 002a 2E4B     		ldr	r3, .L18
 339 002c 1B78     		ldrb	r3, [r3]
 340 002e 5BB2     		sxtb	r3, r3
 341 0030 0222     		movs	r2, #2
 342 0032 1343     		orrs	r3, r2
 343 0034 5AB2     		sxtb	r2, r3
 344 0036 2B4B     		ldr	r3, .L18
 345 0038 1A70     		strb	r2, [r3]
 177:SingleDiode.c **** 	/*add some delay to makes sure the diode voltage is stable*/
 178:SingleDiode.c **** 	CyDelayUs(100); 
 346              		.loc 1 178 0
 347 003a 6420     		movs	r0, #100
 348 003c FFF7FEFF 		bl	CyDelayUs
 179:SingleDiode.c **** 	/*Clear the bit for that last reading that was started before you turned off the ADC*/
 180:SingleDiode.c **** 	ADC_SAR_SAR_INTR_REG = ADC_SAR_EOS_MASK; 
 349              		.loc 1 180 0
 350 0040 294B     		ldr	r3, .L18+4
 351 0042 0122     		movs	r2, #1
 352 0044 1A60     		str	r2, [r3]
 181:SingleDiode.c **** 
 182:SingleDiode.c **** 	/* Measure delta Vbe at I2. Software loop to reduce noise in measurement */
 183:SingleDiode.c ****     for(loop = 0; loop < NUM_OF_SAMPLES_VF; loop++)
 353              		.loc 1 183 0
 354 0046 1723     		movs	r3, #23
 355 0048 FB18     		adds	r3, r7, r3
 356 004a 0022     		movs	r2, #0
 357 004c 1A70     		strb	r2, [r3]
 358 004e 15E0     		b	.L15
 359              	.L16:
 184:SingleDiode.c ****     {
 185:SingleDiode.c ****         ADC_SAR_StartConvert();
 360              		.loc 1 185 0 discriminator 3
 361 0050 FFF7FEFF 		bl	ADC_SAR_StartConvert
 186:SingleDiode.c ****         ADC_SAR_IsEndConversion(ADC_SAR_WAIT_FOR_RESULT); 
 362              		.loc 1 186 0 discriminator 3
 363 0054 0220     		movs	r0, #2
 364 0056 FFF7FEFF 		bl	ADC_SAR_IsEndConversion
 187:SingleDiode.c ****         Vf_SUM = Vf_SUM +  ADC_SAR_GetResult16(0);
 365              		.loc 1 187 0 discriminator 3
 366 005a 0020     		movs	r0, #0
 367 005c FFF7FEFF 		bl	ADC_SAR_GetResult16
 368 0060 0300     		movs	r3, r0
 369 0062 1A00     		movs	r2, r3
 370 0064 3B69     		ldr	r3, [r7, #16]
 371 0066 9B18     		adds	r3, r3, r2
 372 0068 3B61     		str	r3, [r7, #16]
 188:SingleDiode.c **** 		ADC_SAR_StopConvert();
 373              		.loc 1 188 0 discriminator 3
 374 006a FFF7FEFF 		bl	ADC_SAR_StopConvert
 183:SingleDiode.c ****     {
 375              		.loc 1 183 0 discriminator 3
 376 006e 1723     		movs	r3, #23
 377 0070 FB18     		adds	r3, r7, r3
 378 0072 1A78     		ldrb	r2, [r3]
 379 0074 1723     		movs	r3, #23
ARM GAS  C:\Users\Lars\AppData\Local\Temp\ccXFD81U.s 			page 11


 380 0076 FB18     		adds	r3, r7, r3
 381 0078 0132     		adds	r2, r2, #1
 382 007a 1A70     		strb	r2, [r3]
 383              	.L15:
 183:SingleDiode.c ****     {
 384              		.loc 1 183 0 is_stmt 0 discriminator 1
 385 007c 1723     		movs	r3, #23
 386 007e FB18     		adds	r3, r7, r3
 387 0080 1B78     		ldrb	r3, [r3]
 388 0082 3F2B     		cmp	r3, #63
 389 0084 E4D9     		bls	.L16
 189:SingleDiode.c **** 	}
 190:SingleDiode.c **** 	/*Get the delta Vbe after offset calibration*/
 191:SingleDiode.c **** 	Vf_SUM = Vf_SUM  - ADCOffset;
 390              		.loc 1 191 0 is_stmt 1
 391 0086 194B     		ldr	r3, .L18+8
 392 0088 1B88     		ldrh	r3, [r3]
 393 008a 1BB2     		sxth	r3, r3
 394 008c 1A00     		movs	r2, r3
 395 008e 3B69     		ldr	r3, [r7, #16]
 396 0090 9B1A     		subs	r3, r3, r2
 397 0092 3B61     		str	r3, [r7, #16]
 192:SingleDiode.c **** 
 193:SingleDiode.c **** 	turnOffSink();
 398              		.loc 1 193 0
 399 0094 FFF7FEFF 		bl	turnOffSink
 194:SingleDiode.c ****     __SPI_CLEAR_STATUS_BIT(STATUS_CURRENT_SOURCE_ON);
 400              		.loc 1 194 0
 401 0098 124B     		ldr	r3, .L18
 402 009a 1B78     		ldrb	r3, [r3]
 403 009c 5BB2     		sxtb	r3, r3
 404 009e 0222     		movs	r2, #2
 405 00a0 9343     		bics	r3, r2
 406 00a2 5AB2     		sxtb	r2, r3
 407 00a4 0F4B     		ldr	r3, .L18
 408 00a6 1A70     		strb	r2, [r3]
 195:SingleDiode.c ****     
 196:SingleDiode.c **** 	/* Take the different in Vbe and average it per the software loop cycles above */
 197:SingleDiode.c ****     Vf_Single = ((float32)(Vf_SUM)) / ((float32)(NUM_OF_SAMPLES_VF));
 409              		.loc 1 197 0
 410 00a8 3869     		ldr	r0, [r7, #16]
 411 00aa FFF7FEFF 		bl	__aeabi_i2f
 412 00ae 031C     		adds	r3, r0, #0
 413 00b0 8521     		movs	r1, #133
 414 00b2 C905     		lsls	r1, r1, #23
 415 00b4 181C     		adds	r0, r3, #0
 416 00b6 FFF7FEFF 		bl	__aeabi_fdiv
 417 00ba 031C     		adds	r3, r0, #0
 418 00bc FB60     		str	r3, [r7, #12]
 198:SingleDiode.c **** 	
 199:SingleDiode.c **** 	/* Temperature in degree Centigrade */
 200:SingleDiode.c **** 	diode_temperature = convertVoltageToTemperature(Vf_Single);
 419              		.loc 1 200 0
 420 00be FB68     		ldr	r3, [r7, #12]
 421 00c0 181C     		adds	r0, r3, #0
 422 00c2 FFF7FEFF 		bl	convertVoltageToTemperature
 423 00c6 031C     		adds	r3, r0, #0
ARM GAS  C:\Users\Lars\AppData\Local\Temp\ccXFD81U.s 			page 12


 424 00c8 BB60     		str	r3, [r7, #8]
 201:SingleDiode.c ****     __SPI_SET_STATUS_BIT(STATUS_CONVERSION_DONE);
 425              		.loc 1 201 0
 426 00ca 064B     		ldr	r3, .L18
 427 00cc 1B78     		ldrb	r3, [r3]
 428 00ce 5BB2     		sxtb	r3, r3
 429 00d0 0122     		movs	r2, #1
 430 00d2 1343     		orrs	r3, r2
 431 00d4 5AB2     		sxtb	r2, r3
 432 00d6 034B     		ldr	r3, .L18
 433 00d8 1A70     		strb	r2, [r3]
 202:SingleDiode.c **** 	return(diode_temperature);
 434              		.loc 1 202 0
 435 00da BB68     		ldr	r3, [r7, #8]
 203:SingleDiode.c **** }
 436              		.loc 1 203 0
 437 00dc 181C     		adds	r0, r3, #0
 438 00de BD46     		mov	sp, r7
 439 00e0 06B0     		add	sp, sp, #24
 440              		@ sp needed
 441 00e2 80BD     		pop	{r7, pc}
 442              	.L19:
 443              		.align	2
 444              	.L18:
 445 00e4 00000000 		.word	SPI_Status_Reg
 446 00e8 10021A40 		.word	1075446288
 447 00ec 00000000 		.word	ADCOffset
 448              		.cfi_endproc
 449              	.LFE35:
 450              		.size	getDiodeTemperature, .-getDiodeTemperature
 451              		.text
 452              	.Letext0:
 453              		.file 2 "Generated_Source\\PSoC4/cytypes.h"