ARM GAS  C:\Users\Lars\AppData\Local\Temp\ccirROwD.s 			page 1


   1              		.syntax unified
   2              		.cpu cortex-m0
   3              		.fpu softvfp
   4              		.eabi_attribute 20, 1
   5              		.eabi_attribute 21, 1
   6              		.eabi_attribute 23, 3
   7              		.eabi_attribute 24, 1
   8              		.eabi_attribute 25, 1
   9              		.eabi_attribute 26, 1
  10              		.eabi_attribute 30, 6
  11              		.eabi_attribute 34, 0
  12              		.eabi_attribute 18, 4
  13              		.thumb
  14              		.syntax unified
  15              		.file	"SPIS_INT.c"
  16              		.text
  17              	.Ltext0:
  18              		.cfi_sections	.debug_frame
  19              		.section	.text.SPIS_TX_ISR,"ax",%progbits
  20              		.align	2
  21              		.global	SPIS_TX_ISR
  22              		.code	16
  23              		.thumb_func
  24              		.type	SPIS_TX_ISR, %function
  25              	SPIS_TX_ISR:
  26              	.LFB32:
  27              		.file 1 "Generated_Source\\PSoC4\\SPIS_INT.c"
   1:Generated_Source\PSoC4/SPIS_INT.c **** /*******************************************************************************
   2:Generated_Source\PSoC4/SPIS_INT.c **** * File Name: SPIS_INT.c
   3:Generated_Source\PSoC4/SPIS_INT.c **** * Version 2.70
   4:Generated_Source\PSoC4/SPIS_INT.c **** *
   5:Generated_Source\PSoC4/SPIS_INT.c **** * Description:
   6:Generated_Source\PSoC4/SPIS_INT.c **** *  This file provides all Interrupt Service Routine (ISR) for the SPI Slave
   7:Generated_Source\PSoC4/SPIS_INT.c **** *  component.
   8:Generated_Source\PSoC4/SPIS_INT.c **** *
   9:Generated_Source\PSoC4/SPIS_INT.c **** * Note:
  10:Generated_Source\PSoC4/SPIS_INT.c **** *  None.
  11:Generated_Source\PSoC4/SPIS_INT.c **** *
  12:Generated_Source\PSoC4/SPIS_INT.c **** ********************************************************************************
  13:Generated_Source\PSoC4/SPIS_INT.c **** * Copyright 2008-2015, Cypress Semiconductor Corporation.  All rights reserved.
  14:Generated_Source\PSoC4/SPIS_INT.c **** * You may use this file only in accordance with the license, terms, conditions,
  15:Generated_Source\PSoC4/SPIS_INT.c **** * disclaimers, and limitations in the end user license agreement accompanying
  16:Generated_Source\PSoC4/SPIS_INT.c **** * the software package with which this file was provided.
  17:Generated_Source\PSoC4/SPIS_INT.c **** *******************************************************************************/
  18:Generated_Source\PSoC4/SPIS_INT.c **** 
  19:Generated_Source\PSoC4/SPIS_INT.c **** #include "SPIS_PVT.h"
  20:Generated_Source\PSoC4/SPIS_INT.c **** #include "cyapicallbacks.h"
  21:Generated_Source\PSoC4/SPIS_INT.c **** 
  22:Generated_Source\PSoC4/SPIS_INT.c **** /* User code required at start of ISR */
  23:Generated_Source\PSoC4/SPIS_INT.c **** /* `#START SPIS_ISR_START_DEF` */
  24:Generated_Source\PSoC4/SPIS_INT.c **** 
  25:Generated_Source\PSoC4/SPIS_INT.c **** /* `#END` */
  26:Generated_Source\PSoC4/SPIS_INT.c **** 
  27:Generated_Source\PSoC4/SPIS_INT.c **** 
  28:Generated_Source\PSoC4/SPIS_INT.c **** /*******************************************************************************
  29:Generated_Source\PSoC4/SPIS_INT.c **** * Function Name: SPIS_TX_ISR
  30:Generated_Source\PSoC4/SPIS_INT.c **** *
ARM GAS  C:\Users\Lars\AppData\Local\Temp\ccirROwD.s 			page 2


  31:Generated_Source\PSoC4/SPIS_INT.c **** * Summary:
  32:Generated_Source\PSoC4/SPIS_INT.c **** *  Interrupt Service Routine for TX portion of the SPI Slave.
  33:Generated_Source\PSoC4/SPIS_INT.c **** *
  34:Generated_Source\PSoC4/SPIS_INT.c **** * Parameters:
  35:Generated_Source\PSoC4/SPIS_INT.c **** *  None.
  36:Generated_Source\PSoC4/SPIS_INT.c **** *
  37:Generated_Source\PSoC4/SPIS_INT.c **** * Return:
  38:Generated_Source\PSoC4/SPIS_INT.c **** *  None.
  39:Generated_Source\PSoC4/SPIS_INT.c **** *
  40:Generated_Source\PSoC4/SPIS_INT.c **** * Global variables:
  41:Generated_Source\PSoC4/SPIS_INT.c **** *  SPIS_txBufferWrite - used for the account of the bytes which
  42:Generated_Source\PSoC4/SPIS_INT.c **** *  have been written down in the TX software buffer.
  43:Generated_Source\PSoC4/SPIS_INT.c **** *  SPIS_txBufferRead - used for the account of the bytes which
  44:Generated_Source\PSoC4/SPIS_INT.c **** *  have been read from the TX software buffer, modified when exist data to
  45:Generated_Source\PSoC4/SPIS_INT.c **** *  sending and FIFO Not Full.
  46:Generated_Source\PSoC4/SPIS_INT.c **** *  SPIS_txBuffer[SPIS_TX_BUFFER_SIZE] - used to store
  47:Generated_Source\PSoC4/SPIS_INT.c **** *  data to sending.
  48:Generated_Source\PSoC4/SPIS_INT.c **** *  All described above Global variables are used when Software Buffer is used.
  49:Generated_Source\PSoC4/SPIS_INT.c **** *
  50:Generated_Source\PSoC4/SPIS_INT.c **** *******************************************************************************/
  51:Generated_Source\PSoC4/SPIS_INT.c **** CY_ISR(SPIS_TX_ISR)
  52:Generated_Source\PSoC4/SPIS_INT.c **** {
  28              		.loc 1 52 0
  29              		.cfi_startproc
  30              		@ args = 0, pretend = 0, frame = 8
  31              		@ frame_needed = 1, uses_anonymous_args = 0
  32 0000 80B5     		push	{r7, lr}
  33              		.cfi_def_cfa_offset 8
  34              		.cfi_offset 7, -8
  35              		.cfi_offset 14, -4
  36 0002 82B0     		sub	sp, sp, #8
  37              		.cfi_def_cfa_offset 16
  38 0004 00AF     		add	r7, sp, #0
  39              		.cfi_def_cfa_register 7
  53:Generated_Source\PSoC4/SPIS_INT.c **** 
  54:Generated_Source\PSoC4/SPIS_INT.c ****     #if(SPIS_TX_SOFTWARE_BUF_ENABLED)
  55:Generated_Source\PSoC4/SPIS_INT.c ****         uint8 tmpStatus;
  56:Generated_Source\PSoC4/SPIS_INT.c ****     #endif /* (SPIS_TX_SOFTWARE_BUF_ENABLED) */
  57:Generated_Source\PSoC4/SPIS_INT.c **** 
  58:Generated_Source\PSoC4/SPIS_INT.c ****     #ifdef SPIS_TX_ISR_ENTRY_CALLBACK
  59:Generated_Source\PSoC4/SPIS_INT.c ****         SPIS_TX_ISR_EntryCallback();
  60:Generated_Source\PSoC4/SPIS_INT.c ****     #endif /* SPIS_TX_ISR_ENTRY_CALLBACK */
  61:Generated_Source\PSoC4/SPIS_INT.c **** 
  62:Generated_Source\PSoC4/SPIS_INT.c ****     /* User code required at start of ISR */
  63:Generated_Source\PSoC4/SPIS_INT.c ****     /* `#START SPIS_ISR_TX_START` */
  64:Generated_Source\PSoC4/SPIS_INT.c **** 
  65:Generated_Source\PSoC4/SPIS_INT.c ****     /* `#END` */
  66:Generated_Source\PSoC4/SPIS_INT.c **** 
  67:Generated_Source\PSoC4/SPIS_INT.c ****     #if(SPIS_TX_SOFTWARE_BUF_ENABLED)
  68:Generated_Source\PSoC4/SPIS_INT.c ****         /* Component interrupt service code */
  69:Generated_Source\PSoC4/SPIS_INT.c **** 
  70:Generated_Source\PSoC4/SPIS_INT.c ****         /* See if TX data buffer is not empty and there is space in TX FIFO */
  71:Generated_Source\PSoC4/SPIS_INT.c ****         while(SPIS_txBufferRead != SPIS_txBufferWrite)
  40              		.loc 1 71 0
  41 0006 38E0     		b	.L2
  42              	.L8:
  72:Generated_Source\PSoC4/SPIS_INT.c ****         {
ARM GAS  C:\Users\Lars\AppData\Local\Temp\ccirROwD.s 			page 3


  73:Generated_Source\PSoC4/SPIS_INT.c ****             tmpStatus = SPIS_GET_STATUS_TX(SPIS_swStatusTx);
  43              		.loc 1 73 0
  44 0008 2B4B     		ldr	r3, .L12
  45 000a 1B78     		ldrb	r3, [r3]
  46 000c D9B2     		uxtb	r1, r3
  47 000e 2B4B     		ldr	r3, .L12+4
  48 0010 1B78     		ldrb	r3, [r3]
  49 0012 DBB2     		uxtb	r3, r3
  50 0014 6122     		movs	r2, #97
  51 0016 1340     		ands	r3, r2
  52 0018 DAB2     		uxtb	r2, r3
  53 001a FB1D     		adds	r3, r7, #7
  54 001c 0A43     		orrs	r2, r1
  55 001e 1A70     		strb	r2, [r3]
  74:Generated_Source\PSoC4/SPIS_INT.c ****             SPIS_swStatusTx = tmpStatus;
  56              		.loc 1 74 0
  57 0020 264B     		ldr	r3, .L12+4
  58 0022 FA1D     		adds	r2, r7, #7
  59 0024 1278     		ldrb	r2, [r2]
  60 0026 1A70     		strb	r2, [r3]
  75:Generated_Source\PSoC4/SPIS_INT.c **** 
  76:Generated_Source\PSoC4/SPIS_INT.c ****             if ((SPIS_swStatusTx & SPIS_STS_TX_FIFO_NOT_FULL) != 0u)
  61              		.loc 1 76 0
  62 0028 244B     		ldr	r3, .L12+4
  63 002a 1B78     		ldrb	r3, [r3]
  64 002c DBB2     		uxtb	r3, r3
  65 002e 1A00     		movs	r2, r3
  66 0030 0223     		movs	r3, #2
  67 0032 1340     		ands	r3, r2
  68 0034 2AD0     		beq	.L10
  77:Generated_Source\PSoC4/SPIS_INT.c ****             {
  78:Generated_Source\PSoC4/SPIS_INT.c ****                 if(SPIS_txBufferFull == 0u)
  69              		.loc 1 78 0
  70 0036 224B     		ldr	r3, .L12+8
  71 0038 1B78     		ldrb	r3, [r3]
  72 003a DBB2     		uxtb	r3, r3
  73 003c 002B     		cmp	r3, #0
  74 003e 10D1     		bne	.L4
  79:Generated_Source\PSoC4/SPIS_INT.c ****                 {
  80:Generated_Source\PSoC4/SPIS_INT.c ****                    SPIS_txBufferRead++;
  75              		.loc 1 80 0
  76 0040 204B     		ldr	r3, .L12+12
  77 0042 1B78     		ldrb	r3, [r3]
  78 0044 DBB2     		uxtb	r3, r3
  79 0046 0133     		adds	r3, r3, #1
  80 0048 DAB2     		uxtb	r2, r3
  81 004a 1E4B     		ldr	r3, .L12+12
  82 004c 1A70     		strb	r2, [r3]
  81:Generated_Source\PSoC4/SPIS_INT.c **** 
  82:Generated_Source\PSoC4/SPIS_INT.c ****                     if(SPIS_txBufferRead >= SPIS_TX_BUFFER_SIZE)
  83              		.loc 1 82 0
  84 004e 1D4B     		ldr	r3, .L12+12
  85 0050 1B78     		ldrb	r3, [r3]
  86 0052 DBB2     		uxtb	r3, r3
  87 0054 5BB2     		sxtb	r3, r3
  88 0056 002B     		cmp	r3, #0
  89 0058 06DA     		bge	.L6
ARM GAS  C:\Users\Lars\AppData\Local\Temp\ccirROwD.s 			page 4


  83:Generated_Source\PSoC4/SPIS_INT.c ****                     {
  84:Generated_Source\PSoC4/SPIS_INT.c ****                         SPIS_txBufferRead = 0u;
  90              		.loc 1 84 0
  91 005a 1A4B     		ldr	r3, .L12+12
  92 005c 0022     		movs	r2, #0
  93 005e 1A70     		strb	r2, [r3]
  94 0060 02E0     		b	.L6
  95              	.L4:
  85:Generated_Source\PSoC4/SPIS_INT.c ****                     }
  86:Generated_Source\PSoC4/SPIS_INT.c ****                 }
  87:Generated_Source\PSoC4/SPIS_INT.c ****                 else
  88:Generated_Source\PSoC4/SPIS_INT.c ****                 {
  89:Generated_Source\PSoC4/SPIS_INT.c ****                     SPIS_txBufferFull = 0u;
  96              		.loc 1 89 0
  97 0062 174B     		ldr	r3, .L12+8
  98 0064 0022     		movs	r2, #0
  99 0066 1A70     		strb	r2, [r3]
 100              	.L6:
  90:Generated_Source\PSoC4/SPIS_INT.c ****                 }
  91:Generated_Source\PSoC4/SPIS_INT.c **** 
  92:Generated_Source\PSoC4/SPIS_INT.c ****                 /* Put data element into the TX FIFO */
  93:Generated_Source\PSoC4/SPIS_INT.c ****                 CY_SET_REG8(SPIS_TXDATA_PTR, 
 101              		.loc 1 93 0
 102 0068 174A     		ldr	r2, .L12+16
 103 006a 164B     		ldr	r3, .L12+12
 104 006c 1B78     		ldrb	r3, [r3]
 105 006e DBB2     		uxtb	r3, r3
 106 0070 1900     		movs	r1, r3
 107 0072 164B     		ldr	r3, .L12+20
 108 0074 5B5C     		ldrb	r3, [r3, r1]
 109 0076 DBB2     		uxtb	r3, r3
 110 0078 1370     		strb	r3, [r2]
 111              	.L2:
  71:Generated_Source\PSoC4/SPIS_INT.c ****         {
 112              		.loc 1 71 0
 113 007a 124B     		ldr	r3, .L12+12
 114 007c 1B78     		ldrb	r3, [r3]
 115 007e DAB2     		uxtb	r2, r3
 116 0080 134B     		ldr	r3, .L12+24
 117 0082 1B78     		ldrb	r3, [r3]
 118 0084 DBB2     		uxtb	r3, r3
 119 0086 9A42     		cmp	r2, r3
 120 0088 BED1     		bne	.L8
 121 008a 00E0     		b	.L7
 122              	.L10:
  94:Generated_Source\PSoC4/SPIS_INT.c ****                                              SPIS_txBuffer[SPIS_txBufferRead]);
  95:Generated_Source\PSoC4/SPIS_INT.c ****             }
  96:Generated_Source\PSoC4/SPIS_INT.c ****             else
  97:Generated_Source\PSoC4/SPIS_INT.c ****             {
  98:Generated_Source\PSoC4/SPIS_INT.c ****                 break;
 123              		.loc 1 98 0
 124 008c C046     		nop
 125              	.L7:
  99:Generated_Source\PSoC4/SPIS_INT.c ****             }
 100:Generated_Source\PSoC4/SPIS_INT.c ****         }
 101:Generated_Source\PSoC4/SPIS_INT.c **** 
 102:Generated_Source\PSoC4/SPIS_INT.c ****         /* If Buffer is empty then disable TX FIFO status interrupt until there is data in the buff
ARM GAS  C:\Users\Lars\AppData\Local\Temp\ccirROwD.s 			page 5


 103:Generated_Source\PSoC4/SPIS_INT.c ****         if(SPIS_txBufferRead == SPIS_txBufferWrite)
 126              		.loc 1 103 0
 127 008e 0D4B     		ldr	r3, .L12+12
 128 0090 1B78     		ldrb	r3, [r3]
 129 0092 DAB2     		uxtb	r2, r3
 130 0094 0E4B     		ldr	r3, .L12+24
 131 0096 1B78     		ldrb	r3, [r3]
 132 0098 DBB2     		uxtb	r3, r3
 133 009a 9A42     		cmp	r2, r3
 134 009c 07D1     		bne	.L11
 104:Generated_Source\PSoC4/SPIS_INT.c ****         {
 105:Generated_Source\PSoC4/SPIS_INT.c ****             SPIS_TX_STATUS_MASK_REG &= ((uint8)~SPIS_STS_TX_FIFO_NOT_FULL);
 135              		.loc 1 105 0
 136 009e 0D4A     		ldr	r2, .L12+28
 137 00a0 0C4B     		ldr	r3, .L12+28
 138 00a2 1B78     		ldrb	r3, [r3]
 139 00a4 DBB2     		uxtb	r3, r3
 140 00a6 0221     		movs	r1, #2
 141 00a8 8B43     		bics	r3, r1
 142 00aa DBB2     		uxtb	r3, r3
 143 00ac 1370     		strb	r3, [r2]
 144              	.L11:
 106:Generated_Source\PSoC4/SPIS_INT.c ****         }
 107:Generated_Source\PSoC4/SPIS_INT.c **** 
 108:Generated_Source\PSoC4/SPIS_INT.c ****     #endif /* SPIS_TX_SOFTWARE_BUF_ENABLED */
 109:Generated_Source\PSoC4/SPIS_INT.c **** 
 110:Generated_Source\PSoC4/SPIS_INT.c ****     /* User code required at end of ISR (Optional) */
 111:Generated_Source\PSoC4/SPIS_INT.c ****     /* `#START SPIS_ISR_TX_END` */
 112:Generated_Source\PSoC4/SPIS_INT.c **** 
 113:Generated_Source\PSoC4/SPIS_INT.c ****     /* `#END` */
 114:Generated_Source\PSoC4/SPIS_INT.c ****     
 115:Generated_Source\PSoC4/SPIS_INT.c ****     #ifdef SPIS_TX_ISR_EXIT_CALLBACK
 116:Generated_Source\PSoC4/SPIS_INT.c ****         SPIS_TX_ISR_ExitCallback();
 117:Generated_Source\PSoC4/SPIS_INT.c ****     #endif /* SPIS_TX_ISR_EXIT_CALLBACK */
 118:Generated_Source\PSoC4/SPIS_INT.c ****    }
 145              		.loc 1 118 0
 146 00ae C046     		nop
 147 00b0 BD46     		mov	sp, r7
 148 00b2 02B0     		add	sp, sp, #8
 149              		@ sp needed
 150 00b4 80BD     		pop	{r7, pc}
 151              	.L13:
 152 00b6 C046     		.align	2
 153              	.L12:
 154 00b8 60000F40 		.word	1074724960
 155 00bc 00000000 		.word	SPIS_swStatusTx
 156 00c0 00000000 		.word	SPIS_txBufferFull
 157 00c4 00000000 		.word	SPIS_txBufferRead
 158 00c8 41000F40 		.word	1074724929
 159 00cc 00000000 		.word	SPIS_txBuffer
 160 00d0 00000000 		.word	SPIS_txBufferWrite
 161 00d4 80000F40 		.word	1074724992
 162              		.cfi_endproc
 163              	.LFE32:
 164              		.size	SPIS_TX_ISR, .-SPIS_TX_ISR
 165              		.section	.text.SPIS_RX_ISR,"ax",%progbits
 166              		.align	2
ARM GAS  C:\Users\Lars\AppData\Local\Temp\ccirROwD.s 			page 6


 167              		.global	SPIS_RX_ISR
 168              		.code	16
 169              		.thumb_func
 170              		.type	SPIS_RX_ISR, %function
 171              	SPIS_RX_ISR:
 172              	.LFB33:
 119:Generated_Source\PSoC4/SPIS_INT.c **** 
 120:Generated_Source\PSoC4/SPIS_INT.c **** 
 121:Generated_Source\PSoC4/SPIS_INT.c **** /*******************************************************************************
 122:Generated_Source\PSoC4/SPIS_INT.c **** * Function Name: SPIS_RX_ISR
 123:Generated_Source\PSoC4/SPIS_INT.c **** *
 124:Generated_Source\PSoC4/SPIS_INT.c **** * Summary:
 125:Generated_Source\PSoC4/SPIS_INT.c **** *  Interrupt Service Routine for RX portion of the SPI Slave.
 126:Generated_Source\PSoC4/SPIS_INT.c **** *
 127:Generated_Source\PSoC4/SPIS_INT.c **** * Parameters:
 128:Generated_Source\PSoC4/SPIS_INT.c **** *  None.
 129:Generated_Source\PSoC4/SPIS_INT.c **** *
 130:Generated_Source\PSoC4/SPIS_INT.c **** * Return:
 131:Generated_Source\PSoC4/SPIS_INT.c **** *  None.
 132:Generated_Source\PSoC4/SPIS_INT.c **** *
 133:Generated_Source\PSoC4/SPIS_INT.c **** * Global variables:
 134:Generated_Source\PSoC4/SPIS_INT.c **** *  SPIS_rxBufferWrite - used for the account of the bytes which
 135:Generated_Source\PSoC4/SPIS_INT.c **** *  have been written down in the RX software buffer modified when FIFO contains
 136:Generated_Source\PSoC4/SPIS_INT.c **** *  new data.
 137:Generated_Source\PSoC4/SPIS_INT.c **** *  SPIS_rxBufferRead - used for the account of the bytes which
 138:Generated_Source\PSoC4/SPIS_INT.c **** *  have been read from the RX software buffer, modified when overflow occurred.
 139:Generated_Source\PSoC4/SPIS_INT.c **** *  SPIS_rxBuffer[SPIS_RX_BUFFER_SIZE] - used to store
 140:Generated_Source\PSoC4/SPIS_INT.c **** *  received data, modified when FIFO contains new data.
 141:Generated_Source\PSoC4/SPIS_INT.c **** *  All described above Global variables are used when Software Buffer is used.
 142:Generated_Source\PSoC4/SPIS_INT.c **** *
 143:Generated_Source\PSoC4/SPIS_INT.c **** *******************************************************************************/
 144:Generated_Source\PSoC4/SPIS_INT.c **** CY_ISR(SPIS_RX_ISR)
 145:Generated_Source\PSoC4/SPIS_INT.c **** {
 173              		.loc 1 145 0
 174              		.cfi_startproc
 175              		@ args = 0, pretend = 0, frame = 8
 176              		@ frame_needed = 1, uses_anonymous_args = 0
 177 0000 80B5     		push	{r7, lr}
 178              		.cfi_def_cfa_offset 8
 179              		.cfi_offset 7, -8
 180              		.cfi_offset 14, -4
 181 0002 82B0     		sub	sp, sp, #8
 182              		.cfi_def_cfa_offset 16
 183 0004 00AF     		add	r7, sp, #0
 184              		.cfi_def_cfa_register 7
 146:Generated_Source\PSoC4/SPIS_INT.c ****     #if(SPIS_RX_SOFTWARE_BUF_ENABLED)
 147:Generated_Source\PSoC4/SPIS_INT.c ****         uint8 tmpStatus;
 148:Generated_Source\PSoC4/SPIS_INT.c ****         uint8 rxData;
 149:Generated_Source\PSoC4/SPIS_INT.c ****     #endif /* (SPIS_TX_SOFTWARE_BUF_ENABLED) */
 150:Generated_Source\PSoC4/SPIS_INT.c **** 
 151:Generated_Source\PSoC4/SPIS_INT.c ****     #ifdef SPIS_RX_ISR_ENTRY_CALLBACK
 152:Generated_Source\PSoC4/SPIS_INT.c ****         SPIS_RX_ISR_EntryCallback();
 153:Generated_Source\PSoC4/SPIS_INT.c ****     #endif /* SPIS_RX_ISR_ENTRY_CALLBACK */
 154:Generated_Source\PSoC4/SPIS_INT.c **** 
 155:Generated_Source\PSoC4/SPIS_INT.c ****     /* User code required at start of ISR */
 156:Generated_Source\PSoC4/SPIS_INT.c ****     /* `#START SPIS_RX_ISR_START` */
 157:Generated_Source\PSoC4/SPIS_INT.c **** 
ARM GAS  C:\Users\Lars\AppData\Local\Temp\ccirROwD.s 			page 7


 158:Generated_Source\PSoC4/SPIS_INT.c ****     /* `#END` */
 159:Generated_Source\PSoC4/SPIS_INT.c ****     
 160:Generated_Source\PSoC4/SPIS_INT.c ****     #if(SPIS_RX_SOFTWARE_BUF_ENABLED)
 161:Generated_Source\PSoC4/SPIS_INT.c ****         tmpStatus = SPIS_GET_STATUS_RX(SPIS_swStatusRx);
 185              		.loc 1 161 0
 186 0006 324B     		ldr	r3, .L20
 187 0008 1B78     		ldrb	r3, [r3]
 188 000a D9B2     		uxtb	r1, r3
 189 000c 314B     		ldr	r3, .L20+4
 190 000e 1B78     		ldrb	r3, [r3]
 191 0010 DBB2     		uxtb	r3, r3
 192 0012 6122     		movs	r2, #97
 193 0014 1340     		ands	r3, r2
 194 0016 DAB2     		uxtb	r2, r3
 195 0018 FB1D     		adds	r3, r7, #7
 196 001a 0A43     		orrs	r2, r1
 197 001c 1A70     		strb	r2, [r3]
 162:Generated_Source\PSoC4/SPIS_INT.c ****         SPIS_swStatusRx = tmpStatus;
 198              		.loc 1 162 0
 199 001e 2D4B     		ldr	r3, .L20+4
 200 0020 FA1D     		adds	r2, r7, #7
 201 0022 1278     		ldrb	r2, [r2]
 202 0024 1A70     		strb	r2, [r3]
 163:Generated_Source\PSoC4/SPIS_INT.c ****         /* See if RX data FIFO has some data and if it can be moved to the RX Buffer */
 164:Generated_Source\PSoC4/SPIS_INT.c ****         while((SPIS_swStatusRx & SPIS_STS_RX_FIFO_NOT_EMPTY) != 0u)
 203              		.loc 1 164 0
 204 0026 46E0     		b	.L15
 205              	.L19:
 165:Generated_Source\PSoC4/SPIS_INT.c ****         {
 166:Generated_Source\PSoC4/SPIS_INT.c ****             rxData = CY_GET_REG8(SPIS_RXDATA_PTR);
 206              		.loc 1 166 0
 207 0028 2B4A     		ldr	r2, .L20+8
 208 002a BB1D     		adds	r3, r7, #6
 209 002c 1278     		ldrb	r2, [r2]
 210 002e 1A70     		strb	r2, [r3]
 167:Generated_Source\PSoC4/SPIS_INT.c **** 
 168:Generated_Source\PSoC4/SPIS_INT.c ****             /* Set next pointer. */
 169:Generated_Source\PSoC4/SPIS_INT.c ****             SPIS_rxBufferWrite++;
 211              		.loc 1 169 0
 212 0030 2A4B     		ldr	r3, .L20+12
 213 0032 1B78     		ldrb	r3, [r3]
 214 0034 DBB2     		uxtb	r3, r3
 215 0036 0133     		adds	r3, r3, #1
 216 0038 DAB2     		uxtb	r2, r3
 217 003a 284B     		ldr	r3, .L20+12
 218 003c 1A70     		strb	r2, [r3]
 170:Generated_Source\PSoC4/SPIS_INT.c ****             if(SPIS_rxBufferWrite >= SPIS_RX_BUFFER_SIZE)
 219              		.loc 1 170 0
 220 003e 274B     		ldr	r3, .L20+12
 221 0040 1B78     		ldrb	r3, [r3]
 222 0042 DBB2     		uxtb	r3, r3
 223 0044 5BB2     		sxtb	r3, r3
 224 0046 002B     		cmp	r3, #0
 225 0048 02DA     		bge	.L16
 171:Generated_Source\PSoC4/SPIS_INT.c ****             {
 172:Generated_Source\PSoC4/SPIS_INT.c ****                 SPIS_rxBufferWrite = 0u;
 226              		.loc 1 172 0
ARM GAS  C:\Users\Lars\AppData\Local\Temp\ccirROwD.s 			page 8


 227 004a 244B     		ldr	r3, .L20+12
 228 004c 0022     		movs	r2, #0
 229 004e 1A70     		strb	r2, [r3]
 230              	.L16:
 173:Generated_Source\PSoC4/SPIS_INT.c ****             }
 174:Generated_Source\PSoC4/SPIS_INT.c **** 
 175:Generated_Source\PSoC4/SPIS_INT.c ****             if(SPIS_rxBufferWrite == SPIS_rxBufferRead)
 231              		.loc 1 175 0
 232 0050 224B     		ldr	r3, .L20+12
 233 0052 1B78     		ldrb	r3, [r3]
 234 0054 DAB2     		uxtb	r2, r3
 235 0056 224B     		ldr	r3, .L20+16
 236 0058 1B78     		ldrb	r3, [r3]
 237 005a DBB2     		uxtb	r3, r3
 238 005c 9A42     		cmp	r2, r3
 239 005e 12D1     		bne	.L17
 176:Generated_Source\PSoC4/SPIS_INT.c ****             {
 177:Generated_Source\PSoC4/SPIS_INT.c ****                 SPIS_rxBufferRead++;
 240              		.loc 1 177 0
 241 0060 1F4B     		ldr	r3, .L20+16
 242 0062 1B78     		ldrb	r3, [r3]
 243 0064 DBB2     		uxtb	r3, r3
 244 0066 0133     		adds	r3, r3, #1
 245 0068 DAB2     		uxtb	r2, r3
 246 006a 1D4B     		ldr	r3, .L20+16
 247 006c 1A70     		strb	r2, [r3]
 178:Generated_Source\PSoC4/SPIS_INT.c ****                 if(SPIS_rxBufferRead >= SPIS_RX_BUFFER_SIZE)
 248              		.loc 1 178 0
 249 006e 1C4B     		ldr	r3, .L20+16
 250 0070 1B78     		ldrb	r3, [r3]
 251 0072 DBB2     		uxtb	r3, r3
 252 0074 5BB2     		sxtb	r3, r3
 253 0076 002B     		cmp	r3, #0
 254 0078 02DA     		bge	.L18
 179:Generated_Source\PSoC4/SPIS_INT.c ****                 {
 180:Generated_Source\PSoC4/SPIS_INT.c ****                     SPIS_rxBufferRead = 0u;
 255              		.loc 1 180 0
 256 007a 194B     		ldr	r3, .L20+16
 257 007c 0022     		movs	r2, #0
 258 007e 1A70     		strb	r2, [r3]
 259              	.L18:
 181:Generated_Source\PSoC4/SPIS_INT.c ****                 }
 182:Generated_Source\PSoC4/SPIS_INT.c ****                 SPIS_rxBufferFull = 1u;
 260              		.loc 1 182 0
 261 0080 184B     		ldr	r3, .L20+20
 262 0082 0122     		movs	r2, #1
 263 0084 1A70     		strb	r2, [r3]
 264              	.L17:
 183:Generated_Source\PSoC4/SPIS_INT.c ****             }
 184:Generated_Source\PSoC4/SPIS_INT.c **** 
 185:Generated_Source\PSoC4/SPIS_INT.c ****             /* Move data from the FIFO to the Buffer */
 186:Generated_Source\PSoC4/SPIS_INT.c ****             SPIS_rxBuffer[SPIS_rxBufferWrite] = rxData;
 265              		.loc 1 186 0
 266 0086 154B     		ldr	r3, .L20+12
 267 0088 1B78     		ldrb	r3, [r3]
 268 008a DBB2     		uxtb	r3, r3
 269 008c 1900     		movs	r1, r3
ARM GAS  C:\Users\Lars\AppData\Local\Temp\ccirROwD.s 			page 9


 270 008e 164B     		ldr	r3, .L20+24
 271 0090 BA1D     		adds	r2, r7, #6
 272 0092 1278     		ldrb	r2, [r2]
 273 0094 5A54     		strb	r2, [r3, r1]
 187:Generated_Source\PSoC4/SPIS_INT.c **** 
 188:Generated_Source\PSoC4/SPIS_INT.c ****             tmpStatus = SPIS_GET_STATUS_RX(SPIS_swStatusRx);
 274              		.loc 1 188 0
 275 0096 0E4B     		ldr	r3, .L20
 276 0098 1B78     		ldrb	r3, [r3]
 277 009a D9B2     		uxtb	r1, r3
 278 009c 0D4B     		ldr	r3, .L20+4
 279 009e 1B78     		ldrb	r3, [r3]
 280 00a0 DBB2     		uxtb	r3, r3
 281 00a2 6122     		movs	r2, #97
 282 00a4 1340     		ands	r3, r2
 283 00a6 DAB2     		uxtb	r2, r3
 284 00a8 FB1D     		adds	r3, r7, #7
 285 00aa 0A43     		orrs	r2, r1
 286 00ac 1A70     		strb	r2, [r3]
 189:Generated_Source\PSoC4/SPIS_INT.c ****             SPIS_swStatusRx = tmpStatus;
 287              		.loc 1 189 0
 288 00ae 094B     		ldr	r3, .L20+4
 289 00b0 FA1D     		adds	r2, r7, #7
 290 00b2 1278     		ldrb	r2, [r2]
 291 00b4 1A70     		strb	r2, [r3]
 292              	.L15:
 164:Generated_Source\PSoC4/SPIS_INT.c ****         {
 293              		.loc 1 164 0
 294 00b6 074B     		ldr	r3, .L20+4
 295 00b8 1B78     		ldrb	r3, [r3]
 296 00ba DBB2     		uxtb	r3, r3
 297 00bc 1A00     		movs	r2, r3
 298 00be 0823     		movs	r3, #8
 299 00c0 1340     		ands	r3, r2
 300 00c2 B1D1     		bne	.L19
 190:Generated_Source\PSoC4/SPIS_INT.c ****         }
 191:Generated_Source\PSoC4/SPIS_INT.c ****     #endif /* SPIS_RX_SOFTWARE_BUF_ENABLED */
 192:Generated_Source\PSoC4/SPIS_INT.c **** 
 193:Generated_Source\PSoC4/SPIS_INT.c ****     /* User code required at end of ISR (Optional) */
 194:Generated_Source\PSoC4/SPIS_INT.c ****     /* `#START SPIS_RX_ISR_END` */
 195:Generated_Source\PSoC4/SPIS_INT.c **** 
 196:Generated_Source\PSoC4/SPIS_INT.c ****     /* `#END` */
 197:Generated_Source\PSoC4/SPIS_INT.c **** 
 198:Generated_Source\PSoC4/SPIS_INT.c ****     #ifdef SPIS_RX_ISR_EXIT_CALLBACK
 199:Generated_Source\PSoC4/SPIS_INT.c ****         SPIS_RX_ISR_ExitCallback();
 301              		.loc 1 199 0
 302 00c4 FFF7FEFF 		bl	SPIS_RX_ISR_ExitCallback
 200:Generated_Source\PSoC4/SPIS_INT.c ****     #endif /* SPIS_RX_ISR_EXIT_CALLBACK */
 201:Generated_Source\PSoC4/SPIS_INT.c **** }
 303              		.loc 1 201 0
 304 00c8 C046     		nop
 305 00ca BD46     		mov	sp, r7
 306 00cc 02B0     		add	sp, sp, #8
 307              		@ sp needed
 308 00ce 80BD     		pop	{r7, pc}
 309              	.L21:
 310              		.align	2
ARM GAS  C:\Users\Lars\AppData\Local\Temp\ccirROwD.s 			page 10


 311              	.L20:
 312 00d0 63000F40 		.word	1074724963
 313 00d4 00000000 		.word	SPIS_swStatusRx
 314 00d8 51000F40 		.word	1074724945
 315 00dc 00000000 		.word	SPIS_rxBufferWrite
 316 00e0 00000000 		.word	SPIS_rxBufferRead
 317 00e4 00000000 		.word	SPIS_rxBufferFull
 318 00e8 00000000 		.word	SPIS_rxBuffer
 319              		.cfi_endproc
 320              	.LFE33:
 321              		.size	SPIS_RX_ISR, .-SPIS_RX_ISR
 322              		.text
 323              	.Letext0:
 324              		.file 2 "Generated_Source\\PSoC4\\cytypes.h"
 325              		.file 3 "Generated_Source\\PSoC4\\SPIS_PVT.h"