ARM GAS  C:\Users\Lars\AppData\Local\Temp\ccecqZpN.s 			page 1


   1              		.syntax unified
   2              		.cpu cortex-m0
   3              		.fpu softvfp
   4              		.eabi_attribute 20, 1
   5              		.eabi_attribute 21, 1
   6              		.eabi_attribute 23, 3
   7              		.eabi_attribute 24, 1
   8              		.eabi_attribute 25, 1
   9              		.eabi_attribute 26, 1
  10              		.eabi_attribute 30, 6
  11              		.eabi_attribute 34, 0
  12              		.eabi_attribute 18, 4
  13              		.thumb
  14              		.syntax unified
  15              		.file	"IDAC8.c"
  16              		.text
  17              	.Ltext0:
  18              		.cfi_sections	.debug_frame
  19              		.global	IDAC8_initVar
  20              		.bss
  21              		.align	2
  22              		.type	IDAC8_initVar, %object
  23              		.size	IDAC8_initVar, 4
  24              	IDAC8_initVar:
  25 0000 00000000 		.space	4
  26              		.section	.text.IDAC8_Init,"ax",%progbits
  27              		.align	2
  28              		.global	IDAC8_Init
  29              		.code	16
  30              		.thumb_func
  31              		.type	IDAC8_Init, %function
  32              	IDAC8_Init:
  33              	.LFB0:
  34              		.file 1 "Generated_Source\\PSoC4\\IDAC8.c"
   1:Generated_Source\PSoC4/IDAC8.c **** /*******************************************************************************
   2:Generated_Source\PSoC4/IDAC8.c **** * File Name: IDAC8.c
   3:Generated_Source\PSoC4/IDAC8.c **** * Version 1.10
   4:Generated_Source\PSoC4/IDAC8.c **** *
   5:Generated_Source\PSoC4/IDAC8.c **** * Description:
   6:Generated_Source\PSoC4/IDAC8.c **** *  This file provides the source code of APIs for the IDAC_P4 component.
   7:Generated_Source\PSoC4/IDAC8.c **** *
   8:Generated_Source\PSoC4/IDAC8.c **** *******************************************************************************
   9:Generated_Source\PSoC4/IDAC8.c **** * Copyright 2013-2015, Cypress Semiconductor Corporation.  All rights reserved.
  10:Generated_Source\PSoC4/IDAC8.c **** * You may use this file only in accordance with the license, terms, conditions,
  11:Generated_Source\PSoC4/IDAC8.c **** * disclaimers, and limitations in the end user license agreement accompanying
  12:Generated_Source\PSoC4/IDAC8.c **** * the software package with which this file was provided.
  13:Generated_Source\PSoC4/IDAC8.c **** *******************************************************************************/
  14:Generated_Source\PSoC4/IDAC8.c **** 
  15:Generated_Source\PSoC4/IDAC8.c **** #include "IDAC8.h"
  16:Generated_Source\PSoC4/IDAC8.c **** 
  17:Generated_Source\PSoC4/IDAC8.c **** uint32 IDAC8_initVar = 0u;
  18:Generated_Source\PSoC4/IDAC8.c **** 
  19:Generated_Source\PSoC4/IDAC8.c **** 
  20:Generated_Source\PSoC4/IDAC8.c **** /*******************************************************************************
  21:Generated_Source\PSoC4/IDAC8.c **** * Function Name: IDAC8_Init
  22:Generated_Source\PSoC4/IDAC8.c **** ********************************************************************************
  23:Generated_Source\PSoC4/IDAC8.c **** *
ARM GAS  C:\Users\Lars\AppData\Local\Temp\ccecqZpN.s 			page 2


  24:Generated_Source\PSoC4/IDAC8.c **** * Summary:
  25:Generated_Source\PSoC4/IDAC8.c **** *  Initializes IDAC registers with initial values provided from customizer.
  26:Generated_Source\PSoC4/IDAC8.c **** *
  27:Generated_Source\PSoC4/IDAC8.c **** * Parameters:
  28:Generated_Source\PSoC4/IDAC8.c **** *  None
  29:Generated_Source\PSoC4/IDAC8.c **** *
  30:Generated_Source\PSoC4/IDAC8.c **** * Return:
  31:Generated_Source\PSoC4/IDAC8.c **** *  None
  32:Generated_Source\PSoC4/IDAC8.c **** *
  33:Generated_Source\PSoC4/IDAC8.c **** * Global variables:
  34:Generated_Source\PSoC4/IDAC8.c **** *  None
  35:Generated_Source\PSoC4/IDAC8.c **** *
  36:Generated_Source\PSoC4/IDAC8.c **** *******************************************************************************/
  37:Generated_Source\PSoC4/IDAC8.c **** void IDAC8_Init(void)
  38:Generated_Source\PSoC4/IDAC8.c **** {
  35              		.loc 1 38 0
  36              		.cfi_startproc
  37              		@ args = 0, pretend = 0, frame = 8
  38              		@ frame_needed = 1, uses_anonymous_args = 0
  39 0000 90B5     		push	{r4, r7, lr}
  40              		.cfi_def_cfa_offset 12
  41              		.cfi_offset 4, -12
  42              		.cfi_offset 7, -8
  43              		.cfi_offset 14, -4
  44 0002 83B0     		sub	sp, sp, #12
  45              		.cfi_def_cfa_offset 24
  46 0004 00AF     		add	r7, sp, #0
  47              		.cfi_def_cfa_register 7
  39:Generated_Source\PSoC4/IDAC8.c ****     uint32 regVal;
  40:Generated_Source\PSoC4/IDAC8.c ****     uint8 enableInterrupts;
  41:Generated_Source\PSoC4/IDAC8.c **** 
  42:Generated_Source\PSoC4/IDAC8.c ****     /* Set initial configuration */
  43:Generated_Source\PSoC4/IDAC8.c ****     enableInterrupts = CyEnterCriticalSection();
  48              		.loc 1 43 0
  49 0006 FC1D     		adds	r4, r7, #7
  50 0008 FFF7FEFF 		bl	CyEnterCriticalSection
  51 000c 0300     		movs	r3, r0
  52 000e 2370     		strb	r3, [r4]
  44:Generated_Source\PSoC4/IDAC8.c ****     
  45:Generated_Source\PSoC4/IDAC8.c ****     #if(IDAC8_MODE_SOURCE == IDAC8_IDAC_POLARITY)
  46:Generated_Source\PSoC4/IDAC8.c ****         regVal  = IDAC8_CSD_TRIM1_REG & ~(IDAC8_CSD_IDAC_TRIM1_MASK);
  53              		.loc 1 46 0
  54 0010 174B     		ldr	r3, .L2
  55 0012 1B68     		ldr	r3, [r3]
  56 0014 F022     		movs	r2, #240
  57 0016 9343     		bics	r3, r2
  58 0018 3B60     		str	r3, [r7]
  47:Generated_Source\PSoC4/IDAC8.c ****         regVal |=  (IDAC8_SFLASH_TRIM1_REG & IDAC8_CSD_IDAC_TRIM1_MASK);
  59              		.loc 1 47 0
  60 001a 164B     		ldr	r3, .L2+4
  61 001c 1B78     		ldrb	r3, [r3]
  62 001e DBB2     		uxtb	r3, r3
  63 0020 1A00     		movs	r2, r3
  64 0022 F023     		movs	r3, #240
  65 0024 1340     		ands	r3, r2
  66 0026 3A68     		ldr	r2, [r7]
  67 0028 1343     		orrs	r3, r2
ARM GAS  C:\Users\Lars\AppData\Local\Temp\ccecqZpN.s 			page 3


  68 002a 3B60     		str	r3, [r7]
  48:Generated_Source\PSoC4/IDAC8.c ****         IDAC8_CSD_TRIM1_REG = regVal;
  69              		.loc 1 48 0
  70 002c 104B     		ldr	r3, .L2
  71 002e 3A68     		ldr	r2, [r7]
  72 0030 1A60     		str	r2, [r3]
  49:Generated_Source\PSoC4/IDAC8.c ****     #else
  50:Generated_Source\PSoC4/IDAC8.c ****         regVal  = IDAC8_CSD_TRIM2_REG & ~(IDAC8_CSD_IDAC_TRIM2_MASK);
  51:Generated_Source\PSoC4/IDAC8.c ****         regVal |=  (IDAC8_SFLASH_TRIM2_REG & IDAC8_CSD_IDAC_TRIM2_MASK);
  52:Generated_Source\PSoC4/IDAC8.c ****         IDAC8_CSD_TRIM2_REG = regVal;
  53:Generated_Source\PSoC4/IDAC8.c ****     #endif /* (IDAC8_MODE_SOURCE == IDAC8_IDAC_POLARITY) */
  54:Generated_Source\PSoC4/IDAC8.c **** 
  55:Generated_Source\PSoC4/IDAC8.c ****     /* clear previous values */
  56:Generated_Source\PSoC4/IDAC8.c ****     IDAC8_IDAC_CONTROL_REG &= ((uint32)~((uint32)IDAC8_IDAC_VALUE_MASK <<
  73              		.loc 1 56 0
  74 0032 114B     		ldr	r3, .L2+8
  75 0034 104A     		ldr	r2, .L2+8
  76 0036 1268     		ldr	r2, [r2]
  77 0038 1A60     		str	r2, [r3]
  57:Generated_Source\PSoC4/IDAC8.c ****         IDAC8_IDAC_VALUE_POSITION)) | ((uint32)~((uint32)IDAC8_IDAC_MODE_MASK <<
  58:Generated_Source\PSoC4/IDAC8.c ****         IDAC8_IDAC_MODE_POSITION))  | ((uint32)~((uint32)IDAC8_IDAC_RANGE_MASK  <<
  59:Generated_Source\PSoC4/IDAC8.c ****         IDAC8_IDAC_RANGE_POSITION));
  60:Generated_Source\PSoC4/IDAC8.c **** 
  61:Generated_Source\PSoC4/IDAC8.c ****     IDAC8_IDAC_POLARITY_CONTROL_REG &= (~(uint32)((uint32)IDAC8_IDAC_POLARITY_MASK <<
  78              		.loc 1 61 0
  79 003a 104B     		ldr	r3, .L2+12
  80 003c 0F4A     		ldr	r2, .L2+12
  81 003e 1268     		ldr	r2, [r2]
  82 0040 0F49     		ldr	r1, .L2+16
  83 0042 0A40     		ands	r2, r1
  84 0044 1A60     		str	r2, [r3]
  62:Generated_Source\PSoC4/IDAC8.c ****         IDAC8_IDAC_POLARITY_POSITION));
  63:Generated_Source\PSoC4/IDAC8.c **** 
  64:Generated_Source\PSoC4/IDAC8.c ****     /* set new configuration */
  65:Generated_Source\PSoC4/IDAC8.c ****     IDAC8_IDAC_CONTROL_REG |= (((uint32)IDAC8_IDAC_INIT_VALUE <<
  85              		.loc 1 65 0
  86 0046 0C4B     		ldr	r3, .L2+8
  87 0048 0B4A     		ldr	r2, .L2+8
  88 004a 1268     		ldr	r2, [r2]
  89 004c 8021     		movs	r1, #128
  90 004e C904     		lsls	r1, r1, #19
  91 0050 0A43     		orrs	r2, r1
  92 0052 1A60     		str	r2, [r3]
  66:Generated_Source\PSoC4/IDAC8.c ****         IDAC8_IDAC_VALUE_POSITION) | ((uint32)IDAC8_IDAC_RANGE <<
  67:Generated_Source\PSoC4/IDAC8.c ****         IDAC8_IDAC_RANGE_POSITION));
  68:Generated_Source\PSoC4/IDAC8.c **** 
  69:Generated_Source\PSoC4/IDAC8.c ****     IDAC8_IDAC_POLARITY_CONTROL_REG |= ((uint32)IDAC8_IDAC_POLARITY <<
  93              		.loc 1 69 0
  94 0054 094B     		ldr	r3, .L2+12
  95 0056 094A     		ldr	r2, .L2+12
  96 0058 1268     		ldr	r2, [r2]
  97 005a 1A60     		str	r2, [r3]
  70:Generated_Source\PSoC4/IDAC8.c ****                                                            IDAC8_IDAC_POLARITY_POSITION);
  71:Generated_Source\PSoC4/IDAC8.c **** 
  72:Generated_Source\PSoC4/IDAC8.c ****     CyExitCriticalSection(enableInterrupts);
  98              		.loc 1 72 0
  99 005c FB1D     		adds	r3, r7, #7
ARM GAS  C:\Users\Lars\AppData\Local\Temp\ccecqZpN.s 			page 4


 100 005e 1B78     		ldrb	r3, [r3]
 101 0060 1800     		movs	r0, r3
 102 0062 FFF7FEFF 		bl	CyExitCriticalSection
  73:Generated_Source\PSoC4/IDAC8.c **** 
  74:Generated_Source\PSoC4/IDAC8.c **** }
 103              		.loc 1 74 0
 104 0066 C046     		nop
 105 0068 BD46     		mov	sp, r7
 106 006a 03B0     		add	sp, sp, #12
 107              		@ sp needed
 108 006c 90BD     		pop	{r4, r7, pc}
 109              	.L3:
 110 006e C046     		.align	2
 111              	.L2:
 112 0070 00FF0840 		.word	1074331392
 113 0074 60F1FF0F 		.word	268431712
 114 0078 08000840 		.word	1074266120
 115 007c 04000840 		.word	1074266116
 116 0080 FFFFFDFF 		.word	-131073
 117              		.cfi_endproc
 118              	.LFE0:
 119              		.size	IDAC8_Init, .-IDAC8_Init
 120              		.section	.text.IDAC8_Enable,"ax",%progbits
 121              		.align	2
 122              		.global	IDAC8_Enable
 123              		.code	16
 124              		.thumb_func
 125              		.type	IDAC8_Enable, %function
 126              	IDAC8_Enable:
 127              	.LFB1:
  75:Generated_Source\PSoC4/IDAC8.c **** 
  76:Generated_Source\PSoC4/IDAC8.c **** 
  77:Generated_Source\PSoC4/IDAC8.c **** /*******************************************************************************
  78:Generated_Source\PSoC4/IDAC8.c **** * Function Name: IDAC8_Enable
  79:Generated_Source\PSoC4/IDAC8.c **** ********************************************************************************
  80:Generated_Source\PSoC4/IDAC8.c **** *
  81:Generated_Source\PSoC4/IDAC8.c **** * Summary:
  82:Generated_Source\PSoC4/IDAC8.c **** *  Enables IDAC operations.
  83:Generated_Source\PSoC4/IDAC8.c **** *
  84:Generated_Source\PSoC4/IDAC8.c **** * Parameters:
  85:Generated_Source\PSoC4/IDAC8.c **** *  None
  86:Generated_Source\PSoC4/IDAC8.c **** *
  87:Generated_Source\PSoC4/IDAC8.c **** * Return:
  88:Generated_Source\PSoC4/IDAC8.c **** *  None
  89:Generated_Source\PSoC4/IDAC8.c **** *
  90:Generated_Source\PSoC4/IDAC8.c **** * Global variables:
  91:Generated_Source\PSoC4/IDAC8.c **** *  None
  92:Generated_Source\PSoC4/IDAC8.c **** *
  93:Generated_Source\PSoC4/IDAC8.c **** *******************************************************************************/
  94:Generated_Source\PSoC4/IDAC8.c **** void IDAC8_Enable(void)
  95:Generated_Source\PSoC4/IDAC8.c **** {
 128              		.loc 1 95 0
 129              		.cfi_startproc
 130              		@ args = 0, pretend = 0, frame = 8
 131              		@ frame_needed = 1, uses_anonymous_args = 0
 132 0000 90B5     		push	{r4, r7, lr}
 133              		.cfi_def_cfa_offset 12
ARM GAS  C:\Users\Lars\AppData\Local\Temp\ccecqZpN.s 			page 5


 134              		.cfi_offset 4, -12
 135              		.cfi_offset 7, -8
 136              		.cfi_offset 14, -4
 137 0002 83B0     		sub	sp, sp, #12
 138              		.cfi_def_cfa_offset 24
 139 0004 00AF     		add	r7, sp, #0
 140              		.cfi_def_cfa_register 7
  96:Generated_Source\PSoC4/IDAC8.c ****     uint8 enableInterrupts;
  97:Generated_Source\PSoC4/IDAC8.c **** 
  98:Generated_Source\PSoC4/IDAC8.c ****     enableInterrupts = CyEnterCriticalSection();
 141              		.loc 1 98 0
 142 0006 FC1D     		adds	r4, r7, #7
 143 0008 FFF7FEFF 		bl	CyEnterCriticalSection
 144 000c 0300     		movs	r3, r0
 145 000e 2370     		strb	r3, [r4]
  99:Generated_Source\PSoC4/IDAC8.c **** 
 100:Generated_Source\PSoC4/IDAC8.c ****     /* Enable the IDAC */
 101:Generated_Source\PSoC4/IDAC8.c ****     IDAC8_IDAC_CONTROL_REG |= ((uint32)IDAC8_IDAC_EN_MODE <<
 146              		.loc 1 101 0
 147 0010 0B4B     		ldr	r3, .L5
 148 0012 0B4A     		ldr	r2, .L5
 149 0014 1268     		ldr	r2, [r2]
 150 0016 C021     		movs	r1, #192
 151 0018 8904     		lsls	r1, r1, #18
 152 001a 0A43     		orrs	r2, r1
 153 001c 1A60     		str	r2, [r3]
 102:Generated_Source\PSoC4/IDAC8.c ****                                                   IDAC8_IDAC_MODE_POSITION);
 103:Generated_Source\PSoC4/IDAC8.c ****     IDAC8_IDAC_POLARITY_CONTROL_REG |= ((uint32)IDAC8_IDAC_CSD_EN <<
 154              		.loc 1 103 0
 155 001e 094B     		ldr	r3, .L5+4
 156 0020 084A     		ldr	r2, .L5+4
 157 0022 1268     		ldr	r2, [r2]
 158 0024 8021     		movs	r1, #128
 159 0026 0906     		lsls	r1, r1, #24
 160 0028 0A43     		orrs	r2, r1
 161 002a 1A60     		str	r2, [r3]
 104:Generated_Source\PSoC4/IDAC8.c ****                                                            IDAC8_IDAC_CSD_EN_POSITION);
 105:Generated_Source\PSoC4/IDAC8.c ****     CyExitCriticalSection(enableInterrupts);
 162              		.loc 1 105 0
 163 002c FB1D     		adds	r3, r7, #7
 164 002e 1B78     		ldrb	r3, [r3]
 165 0030 1800     		movs	r0, r3
 166 0032 FFF7FEFF 		bl	CyExitCriticalSection
 106:Generated_Source\PSoC4/IDAC8.c **** 
 107:Generated_Source\PSoC4/IDAC8.c **** }
 167              		.loc 1 107 0
 168 0036 C046     		nop
 169 0038 BD46     		mov	sp, r7
 170 003a 03B0     		add	sp, sp, #12
 171              		@ sp needed
 172 003c 90BD     		pop	{r4, r7, pc}
 173              	.L6:
 174 003e C046     		.align	2
 175              	.L5:
 176 0040 08000840 		.word	1074266120
 177 0044 04000840 		.word	1074266116
 178              		.cfi_endproc
ARM GAS  C:\Users\Lars\AppData\Local\Temp\ccecqZpN.s 			page 6


 179              	.LFE1:
 180              		.size	IDAC8_Enable, .-IDAC8_Enable
 181              		.section	.text.IDAC8_Start,"ax",%progbits
 182              		.align	2
 183              		.global	IDAC8_Start
 184              		.code	16
 185              		.thumb_func
 186              		.type	IDAC8_Start, %function
 187              	IDAC8_Start:
 188              	.LFB2:
 108:Generated_Source\PSoC4/IDAC8.c **** 
 109:Generated_Source\PSoC4/IDAC8.c **** 
 110:Generated_Source\PSoC4/IDAC8.c **** /*******************************************************************************
 111:Generated_Source\PSoC4/IDAC8.c **** * Function Name: IDAC8_Start
 112:Generated_Source\PSoC4/IDAC8.c **** ********************************************************************************
 113:Generated_Source\PSoC4/IDAC8.c **** *
 114:Generated_Source\PSoC4/IDAC8.c **** * Summary:
 115:Generated_Source\PSoC4/IDAC8.c **** *  Starts the IDAC hardware.
 116:Generated_Source\PSoC4/IDAC8.c **** *
 117:Generated_Source\PSoC4/IDAC8.c **** * Parameters:
 118:Generated_Source\PSoC4/IDAC8.c **** *  None
 119:Generated_Source\PSoC4/IDAC8.c **** *
 120:Generated_Source\PSoC4/IDAC8.c **** * Return:
 121:Generated_Source\PSoC4/IDAC8.c **** *  None
 122:Generated_Source\PSoC4/IDAC8.c **** *
 123:Generated_Source\PSoC4/IDAC8.c **** * Global variables:
 124:Generated_Source\PSoC4/IDAC8.c **** *  IDAC8_initVar
 125:Generated_Source\PSoC4/IDAC8.c **** *
 126:Generated_Source\PSoC4/IDAC8.c **** *******************************************************************************/
 127:Generated_Source\PSoC4/IDAC8.c **** void IDAC8_Start(void)
 128:Generated_Source\PSoC4/IDAC8.c **** {
 189              		.loc 1 128 0
 190              		.cfi_startproc
 191              		@ args = 0, pretend = 0, frame = 0
 192              		@ frame_needed = 1, uses_anonymous_args = 0
 193 0000 80B5     		push	{r7, lr}
 194              		.cfi_def_cfa_offset 8
 195              		.cfi_offset 7, -8
 196              		.cfi_offset 14, -4
 197 0002 00AF     		add	r7, sp, #0
 198              		.cfi_def_cfa_register 7
 129:Generated_Source\PSoC4/IDAC8.c ****     if(0u == IDAC8_initVar)
 199              		.loc 1 129 0
 200 0004 064B     		ldr	r3, .L9
 201 0006 1B68     		ldr	r3, [r3]
 202 0008 002B     		cmp	r3, #0
 203 000a 04D1     		bne	.L8
 130:Generated_Source\PSoC4/IDAC8.c ****     {
 131:Generated_Source\PSoC4/IDAC8.c ****         IDAC8_Init();
 204              		.loc 1 131 0
 205 000c FFF7FEFF 		bl	IDAC8_Init
 132:Generated_Source\PSoC4/IDAC8.c ****         IDAC8_initVar = 1u;
 206              		.loc 1 132 0
 207 0010 034B     		ldr	r3, .L9
 208 0012 0122     		movs	r2, #1
 209 0014 1A60     		str	r2, [r3]
 210              	.L8:
ARM GAS  C:\Users\Lars\AppData\Local\Temp\ccecqZpN.s 			page 7


 133:Generated_Source\PSoC4/IDAC8.c ****     }
 134:Generated_Source\PSoC4/IDAC8.c **** 
 135:Generated_Source\PSoC4/IDAC8.c ****     IDAC8_Enable();
 211              		.loc 1 135 0
 212 0016 FFF7FEFF 		bl	IDAC8_Enable
 136:Generated_Source\PSoC4/IDAC8.c **** 
 137:Generated_Source\PSoC4/IDAC8.c **** }
 213              		.loc 1 137 0
 214 001a C046     		nop
 215 001c BD46     		mov	sp, r7
 216              		@ sp needed
 217 001e 80BD     		pop	{r7, pc}
 218              	.L10:
 219              		.align	2
 220              	.L9:
 221 0020 00000000 		.word	IDAC8_initVar
 222              		.cfi_endproc
 223              	.LFE2:
 224              		.size	IDAC8_Start, .-IDAC8_Start
 225              		.section	.text.IDAC8_Stop,"ax",%progbits
 226              		.align	2
 227              		.global	IDAC8_Stop
 228              		.code	16
 229              		.thumb_func
 230              		.type	IDAC8_Stop, %function
 231              	IDAC8_Stop:
 232              	.LFB3:
 138:Generated_Source\PSoC4/IDAC8.c **** 
 139:Generated_Source\PSoC4/IDAC8.c **** 
 140:Generated_Source\PSoC4/IDAC8.c **** /*******************************************************************************
 141:Generated_Source\PSoC4/IDAC8.c **** * Function Name: IDAC8_Stop
 142:Generated_Source\PSoC4/IDAC8.c **** ********************************************************************************
 143:Generated_Source\PSoC4/IDAC8.c **** *
 144:Generated_Source\PSoC4/IDAC8.c **** * Summary:
 145:Generated_Source\PSoC4/IDAC8.c **** *  Stops the IDAC hardware.
 146:Generated_Source\PSoC4/IDAC8.c **** *
 147:Generated_Source\PSoC4/IDAC8.c **** * Parameters:
 148:Generated_Source\PSoC4/IDAC8.c **** *  None
 149:Generated_Source\PSoC4/IDAC8.c **** *
 150:Generated_Source\PSoC4/IDAC8.c **** * Return:
 151:Generated_Source\PSoC4/IDAC8.c **** *  None
 152:Generated_Source\PSoC4/IDAC8.c **** *
 153:Generated_Source\PSoC4/IDAC8.c **** * Global variables:
 154:Generated_Source\PSoC4/IDAC8.c **** *  None
 155:Generated_Source\PSoC4/IDAC8.c **** *
 156:Generated_Source\PSoC4/IDAC8.c **** *******************************************************************************/
 157:Generated_Source\PSoC4/IDAC8.c **** void IDAC8_Stop(void)
 158:Generated_Source\PSoC4/IDAC8.c **** {
 233              		.loc 1 158 0
 234              		.cfi_startproc
 235              		@ args = 0, pretend = 0, frame = 8
 236              		@ frame_needed = 1, uses_anonymous_args = 0
 237 0000 90B5     		push	{r4, r7, lr}
 238              		.cfi_def_cfa_offset 12
 239              		.cfi_offset 4, -12
 240              		.cfi_offset 7, -8
 241              		.cfi_offset 14, -4
ARM GAS  C:\Users\Lars\AppData\Local\Temp\ccecqZpN.s 			page 8


 242 0002 83B0     		sub	sp, sp, #12
 243              		.cfi_def_cfa_offset 24
 244 0004 00AF     		add	r7, sp, #0
 245              		.cfi_def_cfa_register 7
 159:Generated_Source\PSoC4/IDAC8.c ****     uint8 enableInterrupts;
 160:Generated_Source\PSoC4/IDAC8.c **** 
 161:Generated_Source\PSoC4/IDAC8.c ****     enableInterrupts = CyEnterCriticalSection();
 246              		.loc 1 161 0
 247 0006 FC1D     		adds	r4, r7, #7
 248 0008 FFF7FEFF 		bl	CyEnterCriticalSection
 249 000c 0300     		movs	r3, r0
 250 000e 2370     		strb	r3, [r4]
 162:Generated_Source\PSoC4/IDAC8.c **** 
 163:Generated_Source\PSoC4/IDAC8.c ****     /* Disable the IDAC */
 164:Generated_Source\PSoC4/IDAC8.c ****     IDAC8_IDAC_CONTROL_REG &= ((uint32)~((uint32)IDAC8_IDAC_MODE_MASK <<
 251              		.loc 1 164 0
 252 0010 074B     		ldr	r3, .L12
 253 0012 074A     		ldr	r2, .L12
 254 0014 1268     		ldr	r2, [r2]
 255 0016 0749     		ldr	r1, .L12+4
 256 0018 0A40     		ands	r2, r1
 257 001a 1A60     		str	r2, [r3]
 165:Generated_Source\PSoC4/IDAC8.c ****         IDAC8_IDAC_MODE_POSITION));
 166:Generated_Source\PSoC4/IDAC8.c ****     CyExitCriticalSection(enableInterrupts);
 258              		.loc 1 166 0
 259 001c FB1D     		adds	r3, r7, #7
 260 001e 1B78     		ldrb	r3, [r3]
 261 0020 1800     		movs	r0, r3
 262 0022 FFF7FEFF 		bl	CyExitCriticalSection
 167:Generated_Source\PSoC4/IDAC8.c **** }
 263              		.loc 1 167 0
 264 0026 C046     		nop
 265 0028 BD46     		mov	sp, r7
 266 002a 03B0     		add	sp, sp, #12
 267              		@ sp needed
 268 002c 90BD     		pop	{r4, r7, pc}
 269              	.L13:
 270 002e C046     		.align	2
 271              	.L12:
 272 0030 08000840 		.word	1074266120
 273 0034 FFFFFFFC 		.word	-50331649
 274              		.cfi_endproc
 275              	.LFE3:
 276              		.size	IDAC8_Stop, .-IDAC8_Stop
 277              		.section	.text.IDAC8_SetValue,"ax",%progbits
 278              		.align	2
 279              		.global	IDAC8_SetValue
 280              		.code	16
 281              		.thumb_func
 282              		.type	IDAC8_SetValue, %function
 283              	IDAC8_SetValue:
 284              	.LFB4:
 168:Generated_Source\PSoC4/IDAC8.c **** 
 169:Generated_Source\PSoC4/IDAC8.c **** 
 170:Generated_Source\PSoC4/IDAC8.c **** /*******************************************************************************
 171:Generated_Source\PSoC4/IDAC8.c **** * Function Name: IDAC8_SetValue
 172:Generated_Source\PSoC4/IDAC8.c **** ********************************************************************************
ARM GAS  C:\Users\Lars\AppData\Local\Temp\ccecqZpN.s 			page 9


 173:Generated_Source\PSoC4/IDAC8.c **** *
 174:Generated_Source\PSoC4/IDAC8.c **** * Summary:
 175:Generated_Source\PSoC4/IDAC8.c **** *  Sets the IDAC value.
 176:Generated_Source\PSoC4/IDAC8.c **** *
 177:Generated_Source\PSoC4/IDAC8.c **** * Parameters:
 178:Generated_Source\PSoC4/IDAC8.c **** *  uint32 value
 179:Generated_Source\PSoC4/IDAC8.c **** *
 180:Generated_Source\PSoC4/IDAC8.c **** * Return:
 181:Generated_Source\PSoC4/IDAC8.c **** *  None
 182:Generated_Source\PSoC4/IDAC8.c **** *
 183:Generated_Source\PSoC4/IDAC8.c **** * Global variables:
 184:Generated_Source\PSoC4/IDAC8.c **** *  None
 185:Generated_Source\PSoC4/IDAC8.c **** *
 186:Generated_Source\PSoC4/IDAC8.c **** *******************************************************************************/
 187:Generated_Source\PSoC4/IDAC8.c **** void IDAC8_SetValue(uint32 value)
 188:Generated_Source\PSoC4/IDAC8.c **** {
 285              		.loc 1 188 0
 286              		.cfi_startproc
 287              		@ args = 0, pretend = 0, frame = 16
 288              		@ frame_needed = 1, uses_anonymous_args = 0
 289 0000 90B5     		push	{r4, r7, lr}
 290              		.cfi_def_cfa_offset 12
 291              		.cfi_offset 4, -12
 292              		.cfi_offset 7, -8
 293              		.cfi_offset 14, -4
 294 0002 85B0     		sub	sp, sp, #20
 295              		.cfi_def_cfa_offset 32
 296 0004 00AF     		add	r7, sp, #0
 297              		.cfi_def_cfa_register 7
 298 0006 7860     		str	r0, [r7, #4]
 189:Generated_Source\PSoC4/IDAC8.c ****     uint8 enableInterrupts;
 190:Generated_Source\PSoC4/IDAC8.c ****     uint32 newRegisterValue;
 191:Generated_Source\PSoC4/IDAC8.c **** 
 192:Generated_Source\PSoC4/IDAC8.c ****     enableInterrupts = CyEnterCriticalSection();
 299              		.loc 1 192 0
 300 0008 0F23     		movs	r3, #15
 301 000a FC18     		adds	r4, r7, r3
 302 000c FFF7FEFF 		bl	CyEnterCriticalSection
 303 0010 0300     		movs	r3, r0
 304 0012 2370     		strb	r3, [r4]
 193:Generated_Source\PSoC4/IDAC8.c **** 
 194:Generated_Source\PSoC4/IDAC8.c ****     #if(IDAC8_IDAC_VALUE_POSITION != 0u)
 195:Generated_Source\PSoC4/IDAC8.c ****         newRegisterValue = ((IDAC8_IDAC_CONTROL_REG & (~(uint32)((uint32)IDAC8_IDAC_VALUE_MASK <<
 305              		.loc 1 195 0
 306 0014 0A4B     		ldr	r3, .L15
 307 0016 1B68     		ldr	r3, [r3]
 308 0018 0A4A     		ldr	r2, .L15+4
 309 001a 1A40     		ands	r2, r3
 196:Generated_Source\PSoC4/IDAC8.c ****         IDAC8_IDAC_VALUE_POSITION))) | (value << IDAC8_IDAC_VALUE_POSITION));
 310              		.loc 1 196 0
 311 001c 7B68     		ldr	r3, [r7, #4]
 312 001e 1B04     		lsls	r3, r3, #16
 195:Generated_Source\PSoC4/IDAC8.c ****         IDAC8_IDAC_VALUE_POSITION))) | (value << IDAC8_IDAC_VALUE_POSITION));
 313              		.loc 1 195 0
 314 0020 1343     		orrs	r3, r2
 315 0022 BB60     		str	r3, [r7, #8]
 197:Generated_Source\PSoC4/IDAC8.c ****     #else
ARM GAS  C:\Users\Lars\AppData\Local\Temp\ccecqZpN.s 			page 10


 198:Generated_Source\PSoC4/IDAC8.c ****         newRegisterValue = ((IDAC8_IDAC_CONTROL_REG & (~(uint32)IDAC8_IDAC_VALUE_MASK)) | value);
 199:Generated_Source\PSoC4/IDAC8.c ****     #endif /* IDAC8_IDAC_VALUE_POSITION != 0u */
 200:Generated_Source\PSoC4/IDAC8.c **** 
 201:Generated_Source\PSoC4/IDAC8.c ****     IDAC8_IDAC_CONTROL_REG = newRegisterValue;
 316              		.loc 1 201 0
 317 0024 064B     		ldr	r3, .L15
 318 0026 BA68     		ldr	r2, [r7, #8]
 319 0028 1A60     		str	r2, [r3]
 202:Generated_Source\PSoC4/IDAC8.c **** 
 203:Generated_Source\PSoC4/IDAC8.c ****     CyExitCriticalSection(enableInterrupts);
 320              		.loc 1 203 0
 321 002a 0F23     		movs	r3, #15
 322 002c FB18     		adds	r3, r7, r3
 323 002e 1B78     		ldrb	r3, [r3]
 324 0030 1800     		movs	r0, r3
 325 0032 FFF7FEFF 		bl	CyExitCriticalSection
 204:Generated_Source\PSoC4/IDAC8.c **** }
 326              		.loc 1 204 0
 327 0036 C046     		nop
 328 0038 BD46     		mov	sp, r7
 329 003a 05B0     		add	sp, sp, #20
 330              		@ sp needed
 331 003c 90BD     		pop	{r4, r7, pc}
 332              	.L16:
 333 003e C046     		.align	2
 334              	.L15:
 335 0040 08000840 		.word	1074266120
 336 0044 FFFF80FF 		.word	-8323073
 337              		.cfi_endproc
 338              	.LFE4:
 339              		.size	IDAC8_SetValue, .-IDAC8_SetValue
 340              		.text
 341              	.Letext0:
 342              		.file 2 "Generated_Source\\PSoC4\\cytypes.h"